
fw_t1.elf:     file format elf32-littleriscv


Disassembly of section .text:

00000000 <_start>:
   0:	10002117          	auipc	x2,0x10002
   4:	00010113          	addi	x2,x2,0 # 10002000 <__stack_top>
   8:	00000013          	addi	x0,x0,0
   c:	00000013          	addi	x0,x0,0
  10:	00000297          	auipc	x5,0x0
  14:	61828293          	addi	x5,x5,1560 # 628 <trap_handler>
  18:	30529073          	csrrw	x0,mtvec,x5
  1c:	00001297          	auipc	x5,0x1
  20:	86c28293          	addi	x5,x5,-1940 # 888 <__data_load>
  24:	10000317          	auipc	x6,0x10000
  28:	fdc30313          	addi	x6,x6,-36 # 10000000 <__bss_end>
  2c:	10000397          	auipc	x7,0x10000
  30:	fd438393          	addi	x7,x7,-44 # 10000000 <__bss_end>
  34:	00730e63          	beq	x6,x7,50 <_copy_done>

00000038 <_copy_data>:
  38:	00735c63          	bge	x6,x7,50 <_copy_done>
  3c:	0002ae03          	lw	x28,0(x5)
  40:	01c32023          	sw	x28,0(x6)
  44:	00428293          	addi	x5,x5,4
  48:	00430313          	addi	x6,x6,4
  4c:	fedff06f          	jal	x0,38 <_copy_data>

00000050 <_copy_done>:
  50:	10000297          	auipc	x5,0x10000
  54:	fb028293          	addi	x5,x5,-80 # 10000000 <__bss_end>
  58:	10000317          	auipc	x6,0x10000
  5c:	fa830313          	addi	x6,x6,-88 # 10000000 <__bss_end>

00000060 <_clear_bss>:
  60:	0062d863          	bge	x5,x6,70 <_bss_done>
  64:	0002a023          	sw	x0,0(x5)
  68:	00428293          	addi	x5,x5,4
  6c:	ff5ff06f          	jal	x0,60 <_clear_bss>

00000070 <_bss_done>:
  70:	00000097          	auipc	x1,0x0
  74:	5c8080e7          	jalr	x1,1480(x1) # 638 <main>

00000078 <_halt>:
  78:	0000006f          	jal	x0,78 <_halt>

0000007c <ascon_read_status>:
  7c:	fe010113          	addi	x2,x2,-32
  80:	00812e23          	sw	x8,28(x2)
  84:	02010413          	addi	x8,x2,32
  88:	200007b7          	lui	x15,0x20000
  8c:	0047a783          	lw	x15,4(x15) # 20000004 <__stack_top+0xfffe004>
  90:	fef42623          	sw	x15,-20(x8)
  94:	fec42783          	lw	x15,-20(x8)
  98:	00078513          	addi	x10,x15,0
  9c:	01c12403          	lw	x8,28(x2)
  a0:	02010113          	addi	x2,x2,32
  a4:	00008067          	jalr	x0,0(x1)

000000a8 <uart_init>:
  a8:	ff010113          	addi	x2,x2,-16
  ac:	00812623          	sw	x8,12(x2)
  b0:	01010413          	addi	x8,x2,16
  b4:	500007b7          	lui	x15,0x50000
  b8:	01078793          	addi	x15,x15,16 # 50000010 <__stack_top+0x3fffe010>
  bc:	36300713          	addi	x14,x0,867
  c0:	00e7a023          	sw	x14,0(x15)
  c4:	0110000f          	fence	w,w
  c8:	500007b7          	lui	x15,0x50000
  cc:	00c78793          	addi	x15,x15,12 # 5000000c <__stack_top+0x3fffe00c>
  d0:	00100713          	addi	x14,x0,1
  d4:	00e7a023          	sw	x14,0(x15)
  d8:	0110000f          	fence	w,w
  dc:	00000013          	addi	x0,x0,0
  e0:	00c12403          	lw	x8,12(x2)
  e4:	01010113          	addi	x2,x2,16
  e8:	00008067          	jalr	x0,0(x1)

000000ec <uart_putc>:
  ec:	fd010113          	addi	x2,x2,-48
  f0:	02812623          	sw	x8,44(x2)
  f4:	03010413          	addi	x8,x2,48
  f8:	00050793          	addi	x15,x10,0
  fc:	fcf40fa3          	sb	x15,-33(x8)
 100:	000027b7          	lui	x15,0x2
 104:	26078793          	addi	x15,x15,608 # 2260 <__data_load+0x19d8>
 108:	fef42623          	sw	x15,-20(x8)
 10c:	500007b7          	lui	x15,0x50000
 110:	fdf44703          	lbu	x14,-33(x8)
 114:	00e7a023          	sw	x14,0(x15) # 50000000 <__stack_top+0x3fffe000>
 118:	0110000f          	fence	w,w
 11c:	0100006f          	jal	x0,12c <uart_putc+0x40>
 120:	fec42783          	lw	x15,-20(x8)
 124:	fff78793          	addi	x15,x15,-1
 128:	fef42623          	sw	x15,-20(x8)
 12c:	fec42783          	lw	x15,-20(x8)
 130:	fe0798e3          	bne	x15,x0,120 <uart_putc+0x34>
 134:	00000013          	addi	x0,x0,0
 138:	00000013          	addi	x0,x0,0
 13c:	02c12403          	lw	x8,44(x2)
 140:	03010113          	addi	x2,x2,48
 144:	00008067          	jalr	x0,0(x1)

00000148 <uart_puts>:
 148:	fe010113          	addi	x2,x2,-32
 14c:	00112e23          	sw	x1,28(x2)
 150:	00812c23          	sw	x8,24(x2)
 154:	02010413          	addi	x8,x2,32
 158:	fea42623          	sw	x10,-20(x8)
 15c:	0200006f          	jal	x0,17c <uart_puts+0x34>
 160:	fec42783          	lw	x15,-20(x8)
 164:	00178713          	addi	x14,x15,1
 168:	fee42623          	sw	x14,-20(x8)
 16c:	0007c783          	lbu	x15,0(x15)
 170:	00078513          	addi	x10,x15,0
 174:	00000097          	auipc	x1,0x0
 178:	f78080e7          	jalr	x1,-136(x1) # ec <uart_putc>
 17c:	fec42783          	lw	x15,-20(x8)
 180:	0007c783          	lbu	x15,0(x15)
 184:	fc079ee3          	bne	x15,x0,160 <uart_puts+0x18>
 188:	00000013          	addi	x0,x0,0
 18c:	00000013          	addi	x0,x0,0
 190:	01c12083          	lw	x1,28(x2)
 194:	01812403          	lw	x8,24(x2)
 198:	02010113          	addi	x2,x2,32
 19c:	00008067          	jalr	x0,0(x1)

000001a0 <uart_puthex8>:
 1a0:	fd010113          	addi	x2,x2,-48
 1a4:	02112623          	sw	x1,44(x2)
 1a8:	02812423          	sw	x8,40(x2)
 1ac:	03010413          	addi	x8,x2,48
 1b0:	00050793          	addi	x15,x10,0
 1b4:	fcf40fa3          	sb	x15,-33(x8)
 1b8:	000007b7          	lui	x15,0x0
 1bc:	7f078793          	addi	x15,x15,2032 # 7f0 <main+0x1b8>
 1c0:	fef42623          	sw	x15,-20(x8)
 1c4:	fdf44783          	lbu	x15,-33(x8)
 1c8:	0047d793          	srli	x15,x15,0x4
 1cc:	0ff7f793          	andi	x15,x15,255
 1d0:	00f7f793          	andi	x15,x15,15
 1d4:	fec42703          	lw	x14,-20(x8)
 1d8:	00f707b3          	add	x15,x14,x15
 1dc:	0007c783          	lbu	x15,0(x15)
 1e0:	00078513          	addi	x10,x15,0
 1e4:	00000097          	auipc	x1,0x0
 1e8:	f08080e7          	jalr	x1,-248(x1) # ec <uart_putc>
 1ec:	fdf44783          	lbu	x15,-33(x8)
 1f0:	00f7f793          	andi	x15,x15,15
 1f4:	fec42703          	lw	x14,-20(x8)
 1f8:	00f707b3          	add	x15,x14,x15
 1fc:	0007c783          	lbu	x15,0(x15)
 200:	00078513          	addi	x10,x15,0
 204:	00000097          	auipc	x1,0x0
 208:	ee8080e7          	jalr	x1,-280(x1) # ec <uart_putc>
 20c:	00000013          	addi	x0,x0,0
 210:	02c12083          	lw	x1,44(x2)
 214:	02812403          	lw	x8,40(x2)
 218:	03010113          	addi	x2,x2,48
 21c:	00008067          	jalr	x0,0(x1)

00000220 <uart_puthex32>:
 220:	fe010113          	addi	x2,x2,-32
 224:	00112e23          	sw	x1,28(x2)
 228:	00812c23          	sw	x8,24(x2)
 22c:	02010413          	addi	x8,x2,32
 230:	fea42623          	sw	x10,-20(x8)
 234:	fec42783          	lw	x15,-20(x8)
 238:	0187d793          	srli	x15,x15,0x18
 23c:	0ff7f793          	andi	x15,x15,255
 240:	00078513          	addi	x10,x15,0
 244:	00000097          	auipc	x1,0x0
 248:	f5c080e7          	jalr	x1,-164(x1) # 1a0 <uart_puthex8>
 24c:	fec42783          	lw	x15,-20(x8)
 250:	0107d793          	srli	x15,x15,0x10
 254:	0ff7f793          	andi	x15,x15,255
 258:	00078513          	addi	x10,x15,0
 25c:	00000097          	auipc	x1,0x0
 260:	f44080e7          	jalr	x1,-188(x1) # 1a0 <uart_puthex8>
 264:	fec42783          	lw	x15,-20(x8)
 268:	0087d793          	srli	x15,x15,0x8
 26c:	0ff7f793          	andi	x15,x15,255
 270:	00078513          	addi	x10,x15,0
 274:	00000097          	auipc	x1,0x0
 278:	f2c080e7          	jalr	x1,-212(x1) # 1a0 <uart_puthex8>
 27c:	fec42783          	lw	x15,-20(x8)
 280:	0ff7f793          	andi	x15,x15,255
 284:	00078513          	addi	x10,x15,0
 288:	00000097          	auipc	x1,0x0
 28c:	f18080e7          	jalr	x1,-232(x1) # 1a0 <uart_puthex8>
 290:	00000013          	addi	x0,x0,0
 294:	01c12083          	lw	x1,28(x2)
 298:	01812403          	lw	x8,24(x2)
 29c:	02010113          	addi	x2,x2,32
 2a0:	00008067          	jalr	x0,0(x1)

000002a4 <uart_putc_fast>:
 2a4:	fe010113          	addi	x2,x2,-32
 2a8:	00812e23          	sw	x8,28(x2)
 2ac:	02010413          	addi	x8,x2,32
 2b0:	00050793          	addi	x15,x10,0
 2b4:	fef407a3          	sb	x15,-17(x8)
 2b8:	500007b7          	lui	x15,0x50000
 2bc:	fef44703          	lbu	x14,-17(x8)
 2c0:	00e7a023          	sw	x14,0(x15) # 50000000 <__stack_top+0x3fffe000>
 2c4:	0110000f          	fence	w,w
 2c8:	00000013          	addi	x0,x0,0
 2cc:	00000013          	addi	x0,x0,0
 2d0:	00000013          	addi	x0,x0,0
 2d4:	00000013          	addi	x0,x0,0
 2d8:	00000013          	addi	x0,x0,0
 2dc:	00000013          	addi	x0,x0,0
 2e0:	00000013          	addi	x0,x0,0
 2e4:	00000013          	addi	x0,x0,0
 2e8:	00000013          	addi	x0,x0,0
 2ec:	00000013          	addi	x0,x0,0
 2f0:	00000013          	addi	x0,x0,0
 2f4:	00000013          	addi	x0,x0,0
 2f8:	00000013          	addi	x0,x0,0
 2fc:	00000013          	addi	x0,x0,0
 300:	00000013          	addi	x0,x0,0
 304:	00000013          	addi	x0,x0,0
 308:	00000013          	addi	x0,x0,0
 30c:	01c12403          	lw	x8,28(x2)
 310:	02010113          	addi	x2,x2,32
 314:	00008067          	jalr	x0,0(x1)

00000318 <uart_puts_fast>:
 318:	fe010113          	addi	x2,x2,-32
 31c:	00112e23          	sw	x1,28(x2)
 320:	00812c23          	sw	x8,24(x2)
 324:	02010413          	addi	x8,x2,32
 328:	fea42623          	sw	x10,-20(x8)
 32c:	0200006f          	jal	x0,34c <uart_puts_fast+0x34>
 330:	fec42783          	lw	x15,-20(x8)
 334:	00178713          	addi	x14,x15,1
 338:	fee42623          	sw	x14,-20(x8)
 33c:	0007c783          	lbu	x15,0(x15)
 340:	00078513          	addi	x10,x15,0
 344:	00000097          	auipc	x1,0x0
 348:	f60080e7          	jalr	x1,-160(x1) # 2a4 <uart_putc_fast>
 34c:	fec42783          	lw	x15,-20(x8)
 350:	0007c783          	lbu	x15,0(x15)
 354:	fc079ee3          	bne	x15,x0,330 <uart_puts_fast+0x18>
 358:	00000013          	addi	x0,x0,0
 35c:	00000013          	addi	x0,x0,0
 360:	01c12083          	lw	x1,28(x2)
 364:	01812403          	lw	x8,24(x2)
 368:	02010113          	addi	x2,x2,32
 36c:	00008067          	jalr	x0,0(x1)

00000370 <uart_puthex8_fast>:
 370:	fd010113          	addi	x2,x2,-48
 374:	02112623          	sw	x1,44(x2)
 378:	02812423          	sw	x8,40(x2)
 37c:	03010413          	addi	x8,x2,48
 380:	00050793          	addi	x15,x10,0
 384:	fcf40fa3          	sb	x15,-33(x8)
 388:	000007b7          	lui	x15,0x0
 38c:	7f078793          	addi	x15,x15,2032 # 7f0 <main+0x1b8>
 390:	fef42623          	sw	x15,-20(x8)
 394:	fdf44783          	lbu	x15,-33(x8)
 398:	0047d793          	srli	x15,x15,0x4
 39c:	0ff7f793          	andi	x15,x15,255
 3a0:	00f7f793          	andi	x15,x15,15
 3a4:	fec42703          	lw	x14,-20(x8)
 3a8:	00f707b3          	add	x15,x14,x15
 3ac:	0007c783          	lbu	x15,0(x15)
 3b0:	00078513          	addi	x10,x15,0
 3b4:	00000097          	auipc	x1,0x0
 3b8:	ef0080e7          	jalr	x1,-272(x1) # 2a4 <uart_putc_fast>
 3bc:	fdf44783          	lbu	x15,-33(x8)
 3c0:	00f7f793          	andi	x15,x15,15
 3c4:	fec42703          	lw	x14,-20(x8)
 3c8:	00f707b3          	add	x15,x14,x15
 3cc:	0007c783          	lbu	x15,0(x15)
 3d0:	00078513          	addi	x10,x15,0
 3d4:	00000097          	auipc	x1,0x0
 3d8:	ed0080e7          	jalr	x1,-304(x1) # 2a4 <uart_putc_fast>
 3dc:	00000013          	addi	x0,x0,0
 3e0:	02c12083          	lw	x1,44(x2)
 3e4:	02812403          	lw	x8,40(x2)
 3e8:	03010113          	addi	x2,x2,48
 3ec:	00008067          	jalr	x0,0(x1)

000003f0 <uart_puthex32_fast>:
 3f0:	fe010113          	addi	x2,x2,-32
 3f4:	00112e23          	sw	x1,28(x2)
 3f8:	00812c23          	sw	x8,24(x2)
 3fc:	02010413          	addi	x8,x2,32
 400:	fea42623          	sw	x10,-20(x8)
 404:	fec42783          	lw	x15,-20(x8)
 408:	0187d793          	srli	x15,x15,0x18
 40c:	0ff7f793          	andi	x15,x15,255
 410:	00078513          	addi	x10,x15,0
 414:	00000097          	auipc	x1,0x0
 418:	f5c080e7          	jalr	x1,-164(x1) # 370 <uart_puthex8_fast>
 41c:	fec42783          	lw	x15,-20(x8)
 420:	0107d793          	srli	x15,x15,0x10
 424:	0ff7f793          	andi	x15,x15,255
 428:	00078513          	addi	x10,x15,0
 42c:	00000097          	auipc	x1,0x0
 430:	f44080e7          	jalr	x1,-188(x1) # 370 <uart_puthex8_fast>
 434:	fec42783          	lw	x15,-20(x8)
 438:	0087d793          	srli	x15,x15,0x8
 43c:	0ff7f793          	andi	x15,x15,255
 440:	00078513          	addi	x10,x15,0
 444:	00000097          	auipc	x1,0x0
 448:	f2c080e7          	jalr	x1,-212(x1) # 370 <uart_puthex8_fast>
 44c:	fec42783          	lw	x15,-20(x8)
 450:	0ff7f793          	andi	x15,x15,255
 454:	00078513          	addi	x10,x15,0
 458:	00000097          	auipc	x1,0x0
 45c:	f18080e7          	jalr	x1,-232(x1) # 370 <uart_puthex8_fast>
 460:	00000013          	addi	x0,x0,0
 464:	01c12083          	lw	x1,28(x2)
 468:	01812403          	lw	x8,24(x2)
 46c:	02010113          	addi	x2,x2,32
 470:	00008067          	jalr	x0,0(x1)

00000474 <uart_print_result>:
 474:	fd010113          	addi	x2,x2,-48
 478:	02112623          	sw	x1,44(x2)
 47c:	02812423          	sw	x8,40(x2)
 480:	03010413          	addi	x8,x2,48
 484:	fea42623          	sw	x10,-20(x8)
 488:	feb42423          	sw	x11,-24(x8)
 48c:	fec42223          	sw	x12,-28(x8)
 490:	fed42023          	sw	x13,-32(x8)
 494:	fce42e23          	sw	x14,-36(x8)
 498:	fcf42c23          	sw	x15,-40(x8)
 49c:	fd042a23          	sw	x16,-44(x8)
 4a0:	fd142823          	sw	x17,-48(x8)
 4a4:	000017b7          	lui	x15,0x1
 4a8:	80478513          	addi	x10,x15,-2044 # 804 <main+0x1cc>
 4ac:	00000097          	auipc	x1,0x0
 4b0:	e6c080e7          	jalr	x1,-404(x1) # 318 <uart_puts_fast>
 4b4:	000017b7          	lui	x15,0x1
 4b8:	81878513          	addi	x10,x15,-2024 # 818 <main+0x1e0>
 4bc:	00000097          	auipc	x1,0x0
 4c0:	e5c080e7          	jalr	x1,-420(x1) # 318 <uart_puts_fast>
 4c4:	fec42503          	lw	x10,-20(x8)
 4c8:	00000097          	auipc	x1,0x0
 4cc:	f28080e7          	jalr	x1,-216(x1) # 3f0 <uart_puthex32_fast>
 4d0:	fe842503          	lw	x10,-24(x8)
 4d4:	00000097          	auipc	x1,0x0
 4d8:	f1c080e7          	jalr	x1,-228(x1) # 3f0 <uart_puthex32_fast>
 4dc:	000017b7          	lui	x15,0x1
 4e0:	81c78513          	addi	x10,x15,-2020 # 81c <main+0x1e4>
 4e4:	00000097          	auipc	x1,0x0
 4e8:	e34080e7          	jalr	x1,-460(x1) # 318 <uart_puts_fast>
 4ec:	000017b7          	lui	x15,0x1
 4f0:	82078513          	addi	x10,x15,-2016 # 820 <main+0x1e8>
 4f4:	00000097          	auipc	x1,0x0
 4f8:	e24080e7          	jalr	x1,-476(x1) # 318 <uart_puts_fast>
 4fc:	fe442503          	lw	x10,-28(x8)
 500:	00000097          	auipc	x1,0x0
 504:	ef0080e7          	jalr	x1,-272(x1) # 3f0 <uart_puthex32_fast>
 508:	fe042503          	lw	x10,-32(x8)
 50c:	00000097          	auipc	x1,0x0
 510:	ee4080e7          	jalr	x1,-284(x1) # 3f0 <uart_puthex32_fast>
 514:	fdc42503          	lw	x10,-36(x8)
 518:	00000097          	auipc	x1,0x0
 51c:	ed8080e7          	jalr	x1,-296(x1) # 3f0 <uart_puthex32_fast>
 520:	fd842503          	lw	x10,-40(x8)
 524:	00000097          	auipc	x1,0x0
 528:	ecc080e7          	jalr	x1,-308(x1) # 3f0 <uart_puthex32_fast>
 52c:	000017b7          	lui	x15,0x1
 530:	81c78513          	addi	x10,x15,-2020 # 81c <main+0x1e4>
 534:	00000097          	auipc	x1,0x0
 538:	de4080e7          	jalr	x1,-540(x1) # 318 <uart_puts_fast>
 53c:	000017b7          	lui	x15,0x1
 540:	82478513          	addi	x10,x15,-2012 # 824 <main+0x1ec>
 544:	00000097          	auipc	x1,0x0
 548:	dd4080e7          	jalr	x1,-556(x1) # 318 <uart_puts_fast>
 54c:	fd442503          	lw	x10,-44(x8)
 550:	00000097          	auipc	x1,0x0
 554:	ea0080e7          	jalr	x1,-352(x1) # 3f0 <uart_puthex32_fast>
 558:	000017b7          	lui	x15,0x1
 55c:	81c78513          	addi	x10,x15,-2020 # 81c <main+0x1e4>
 560:	00000097          	auipc	x1,0x0
 564:	db8080e7          	jalr	x1,-584(x1) # 318 <uart_puts_fast>
 568:	000017b7          	lui	x15,0x1
 56c:	82c78513          	addi	x10,x15,-2004 # 82c <main+0x1f4>
 570:	00000097          	auipc	x1,0x0
 574:	da8080e7          	jalr	x1,-600(x1) # 318 <uart_puts_fast>
 578:	fd042783          	lw	x15,-48(x8)
 57c:	00079c63          	bne	x15,x0,594 <uart_print_result+0x120>
 580:	000017b7          	lui	x15,0x1
 584:	83478513          	addi	x10,x15,-1996 # 834 <main+0x1fc>
 588:	00000097          	auipc	x1,0x0
 58c:	d90080e7          	jalr	x1,-624(x1) # 318 <uart_puts_fast>
 590:	0740006f          	jal	x0,604 <uart_print_result+0x190>
 594:	fd042703          	lw	x14,-48(x8)
 598:	fff00793          	addi	x15,x0,-1
 59c:	00f71c63          	bne	x14,x15,5b4 <uart_print_result+0x140>
 5a0:	000017b7          	lui	x15,0x1
 5a4:	83878513          	addi	x10,x15,-1992 # 838 <main+0x200>
 5a8:	00000097          	auipc	x1,0x0
 5ac:	d70080e7          	jalr	x1,-656(x1) # 318 <uart_puts_fast>
 5b0:	0540006f          	jal	x0,604 <uart_print_result+0x190>
 5b4:	fd042703          	lw	x14,-48(x8)
 5b8:	ffe00793          	addi	x15,x0,-2
 5bc:	00f71c63          	bne	x14,x15,5d4 <uart_print_result+0x160>
 5c0:	000017b7          	lui	x15,0x1
 5c4:	83c78513          	addi	x10,x15,-1988 # 83c <main+0x204>
 5c8:	00000097          	auipc	x1,0x0
 5cc:	d50080e7          	jalr	x1,-688(x1) # 318 <uart_puts_fast>
 5d0:	0340006f          	jal	x0,604 <uart_print_result+0x190>
 5d4:	fd042703          	lw	x14,-48(x8)
 5d8:	ffd00793          	addi	x15,x0,-3
 5dc:	00f71c63          	bne	x14,x15,5f4 <uart_print_result+0x180>
 5e0:	000017b7          	lui	x15,0x1
 5e4:	84078513          	addi	x10,x15,-1984 # 840 <main+0x208>
 5e8:	00000097          	auipc	x1,0x0
 5ec:	d30080e7          	jalr	x1,-720(x1) # 318 <uart_puts_fast>
 5f0:	0140006f          	jal	x0,604 <uart_print_result+0x190>
 5f4:	000017b7          	lui	x15,0x1
 5f8:	84478513          	addi	x10,x15,-1980 # 844 <main+0x20c>
 5fc:	00000097          	auipc	x1,0x0
 600:	d1c080e7          	jalr	x1,-740(x1) # 318 <uart_puts_fast>
 604:	000017b7          	lui	x15,0x1
 608:	81c78513          	addi	x10,x15,-2020 # 81c <main+0x1e4>
 60c:	00000097          	auipc	x1,0x0
 610:	d0c080e7          	jalr	x1,-756(x1) # 318 <uart_puts_fast>
 614:	00000013          	addi	x0,x0,0
 618:	02c12083          	lw	x1,44(x2)
 61c:	02812403          	lw	x8,40(x2)
 620:	03010113          	addi	x2,x2,48
 624:	00008067          	jalr	x0,0(x1)

00000628 <trap_handler>:
 628:	ff010113          	addi	x2,x2,-16
 62c:	00812623          	sw	x8,12(x2)
 630:	01010413          	addi	x8,x2,16
 634:	0000006f          	jal	x0,634 <trap_handler+0xc>

00000638 <main>:
 638:	fe010113          	addi	x2,x2,-32
 63c:	00112e23          	sw	x1,28(x2)
 640:	00812c23          	sw	x8,24(x2)
 644:	02010413          	addi	x8,x2,32
 648:	00000097          	auipc	x1,0x0
 64c:	a60080e7          	jalr	x1,-1440(x1) # a8 <uart_init>
 650:	000017b7          	lui	x15,0x1
 654:	84878513          	addi	x10,x15,-1976 # 848 <main+0x210>
 658:	00000097          	auipc	x1,0x0
 65c:	cc0080e7          	jalr	x1,-832(x1) # 318 <uart_puts_fast>
 660:	200007b7          	lui	x15,0x20000
 664:	00200713          	addi	x14,x0,2
 668:	02e7a023          	sw	x14,32(x15) # 20000020 <__stack_top+0xfffe020>
 66c:	0ff0000f          	fence	iorw,iorw
 670:	200007b7          	lui	x15,0x20000
 674:	0007a623          	sw	x0,12(x15) # 2000000c <__stack_top+0xfffe00c>
 678:	0ff0000f          	fence	iorw,iorw
 67c:	200007b7          	lui	x15,0x20000
 680:	00100713          	addi	x14,x0,1
 684:	00e7a023          	sw	x14,0(x15) # 20000000 <__stack_top+0xfffe000>
 688:	0ff0000f          	fence	iorw,iorw
 68c:	200007b7          	lui	x15,0x20000
 690:	00112737          	lui	x14,0x112
 694:	23370713          	addi	x14,x14,563 # 112233 <__data_load+0x1119ab>
 698:	00e7a823          	sw	x14,16(x15) # 20000010 <__stack_top+0xfffe010>
 69c:	200007b7          	lui	x15,0x20000
 6a0:	44556737          	lui	x14,0x44556
 6a4:	67770713          	addi	x14,x14,1655 # 44556677 <__stack_top+0x34554677>
 6a8:	00e7aa23          	sw	x14,20(x15) # 20000014 <__stack_top+0xfffe014>
 6ac:	200007b7          	lui	x15,0x20000
 6b0:	8899b737          	lui	x14,0x8899b
 6b4:	abb70713          	addi	x14,x14,-1349 # 8899aabb <__stack_top+0x78998abb>
 6b8:	00e7ac23          	sw	x14,24(x15) # 20000018 <__stack_top+0xfffe018>
 6bc:	200007b7          	lui	x15,0x20000
 6c0:	ccddf737          	lui	x14,0xccddf
 6c4:	eff70713          	addi	x14,x14,-257 # ccddeeff <__stack_top+0xbcddceff>
 6c8:	00e7ae23          	sw	x14,28(x15) # 2000001c <__stack_top+0xfffe01c>
 6cc:	0ff0000f          	fence	iorw,iorw
 6d0:	200007b7          	lui	x15,0x20000
 6d4:	deadc737          	lui	x14,0xdeadc
 6d8:	eef70713          	addi	x14,x14,-273 # deadbeef <__stack_top+0xcead9eef>
 6dc:	02e7a223          	sw	x14,36(x15) # 20000024 <__stack_top+0xfffe024>
 6e0:	200007b7          	lui	x15,0x20000
 6e4:	cafec737          	lui	x14,0xcafec
 6e8:	abe70713          	addi	x14,x14,-1346 # cafebabe <__stack_top+0xbafe9abe>
 6ec:	02e7a423          	sw	x14,40(x15) # 20000028 <__stack_top+0xfffe028>
 6f0:	200007b7          	lui	x15,0x20000
 6f4:	01234737          	lui	x14,0x1234
 6f8:	56770713          	addi	x14,x14,1383 # 1234567 <__data_load+0x1233cdf>
 6fc:	02e7a623          	sw	x14,44(x15) # 2000002c <__stack_top+0xfffe02c>
 700:	200007b7          	lui	x15,0x20000
 704:	89abd737          	lui	x14,0x89abd
 708:	def70713          	addi	x14,x14,-529 # 89abcdef <__stack_top+0x79abadef>
 70c:	02e7a823          	sw	x14,48(x15) # 20000030 <__stack_top+0xfffe030>
 710:	0ff0000f          	fence	iorw,iorw
 714:	200007b7          	lui	x15,0x20000
 718:	48657737          	lui	x14,0x48657
 71c:	c6c70713          	addi	x14,x14,-916 # 48656c6c <__stack_top+0x38654c6c>
 720:	02e7aa23          	sw	x14,52(x15) # 20000034 <__stack_top+0xfffe034>
 724:	0ff0000f          	fence	iorw,iorw
 728:	200007b7          	lui	x15,0x20000
 72c:	00400713          	addi	x14,x0,4
 730:	02e7ae23          	sw	x14,60(x15) # 2000003c <__stack_top+0xfffe03c>
 734:	0ff0000f          	fence	iorw,iorw
 738:	200007b7          	lui	x15,0x20000
 73c:	10000737          	lui	x14,0x10000
 740:	10070713          	addi	x14,x14,256 # 10000100 <__bss_end+0x100>
 744:	10e7a023          	sw	x14,256(x15) # 20000100 <__stack_top+0xfffe100>
 748:	0ff0000f          	fence	iorw,iorw
 74c:	200007b7          	lui	x15,0x20000
 750:	10000737          	lui	x14,0x10000
 754:	11070713          	addi	x14,x14,272 # 10000110 <__bss_end+0x110>
 758:	10e7a223          	sw	x14,260(x15) # 20000104 <__stack_top+0xfffe104>
 75c:	0ff0000f          	fence	iorw,iorw
 760:	200007b7          	lui	x15,0x20000
 764:	01800713          	addi	x14,x0,24
 768:	10e7a423          	sw	x14,264(x15) # 20000108 <__stack_top+0xfffe108>
 76c:	0ff0000f          	fence	iorw,iorw
 770:	000017b7          	lui	x15,0x1
 774:	85478513          	addi	x10,x15,-1964 # 854 <main+0x21c>
 778:	00000097          	auipc	x1,0x0
 77c:	ba0080e7          	jalr	x1,-1120(x1) # 318 <uart_puts_fast>
 780:	0ff0000f          	fence	iorw,iorw
 784:	00000097          	auipc	x1,0x0
 788:	8f8080e7          	jalr	x1,-1800(x1) # 7c <ascon_read_status>
 78c:	fea42623          	sw	x10,-20(x8)
 790:	000017b7          	lui	x15,0x1
 794:	86878513          	addi	x10,x15,-1944 # 868 <main+0x230>
 798:	00000097          	auipc	x1,0x0
 79c:	b80080e7          	jalr	x1,-1152(x1) # 318 <uart_puts_fast>
 7a0:	fec42503          	lw	x10,-20(x8)
 7a4:	00000097          	auipc	x1,0x0
 7a8:	c4c080e7          	jalr	x1,-948(x1) # 3f0 <uart_puthex32_fast>
 7ac:	000017b7          	lui	x15,0x1
 7b0:	81c78513          	addi	x10,x15,-2020 # 81c <main+0x1e4>
 7b4:	00000097          	auipc	x1,0x0
 7b8:	b64080e7          	jalr	x1,-1180(x1) # 318 <uart_puts_fast>
 7bc:	fec42783          	lw	x15,-20(x8)
 7c0:	0307f793          	andi	x15,x15,48
 7c4:	00078c63          	beq	x15,x0,7dc <main+0x1a4>
 7c8:	000017b7          	lui	x15,0x1
 7cc:	87078513          	addi	x10,x15,-1936 # 870 <main+0x238>
 7d0:	00000097          	auipc	x1,0x0
 7d4:	b48080e7          	jalr	x1,-1208(x1) # 318 <uart_puts_fast>
 7d8:	0000006f          	jal	x0,7d8 <main+0x1a0>
 7dc:	000017b7          	lui	x15,0x1
 7e0:	88078513          	addi	x10,x15,-1920 # 880 <main+0x248>
 7e4:	00000097          	auipc	x1,0x0
 7e8:	b34080e7          	jalr	x1,-1228(x1) # 318 <uart_puts_fast>
 7ec:	0000006f          	jal	x0,7ec <main+0x1b4>
 7f0:	3130                	.insn	2, 0x3130
 7f2:	3332                	.insn	2, 0x3332
 7f4:	3534                	.insn	2, 0x3534
 7f6:	3736                	.insn	2, 0x3736
 7f8:	3938                	.insn	2, 0x3938
 7fa:	4241                	.insn	2, 0x4241
 7fc:	46454443          	.insn	4, 0x46454443
 800:	0000                	.insn	2, 0x
 802:	0000                	.insn	2, 0x
 804:	0a0d                	.insn	2, 0x0a0d
 806:	413d                	.insn	2, 0x413d
 808:	4e4f4353          	.insn	4, 0x4e4f4353
 80c:	5220                	.insn	2, 0x5220
 80e:	5345                	.insn	2, 0x5345
 810:	4c55                	.insn	2, 0x4c55
 812:	3d54                	.insn	2, 0x3d54
 814:	0a0d                	.insn	2, 0x0a0d
 816:	0000                	.insn	2, 0x
 818:	00003a43          	.insn	4, 0x3a43
 81c:	0a0d                	.insn	2, 0x0a0d
 81e:	0000                	.insn	2, 0x
 820:	3a54                	.insn	2, 0x3a54
 822:	0000                	.insn	2, 0x
 824:	3a535453          	.insn	4, 0x3a535453
 828:	0000                	.insn	2, 0x
 82a:	0000                	.insn	2, 0x
 82c:	4552                	.insn	2, 0x4552
 82e:	3a54                	.insn	2, 0x3a54
 830:	0000                	.insn	2, 0x
 832:	0000                	.insn	2, 0x
 834:	00004b4f          	.insn	4, 0x4b4f
 838:	2d45                	.insn	2, 0x2d45
 83a:	0031                	.insn	2, 0x0031
 83c:	2d45                	.insn	2, 0x2d45
 83e:	0032                	.insn	2, 0x0032
 840:	2d45                	.insn	2, 0x2d45
 842:	2d450033          	.insn	4, 0x2d450033
 846:	3154003f 4154533a 	.insn	8, 0x4154533a3154003f
 84e:	5452                	.insn	2, 0x5452
 850:	0a0d                	.insn	2, 0x0a0d
 852:	0000                	.insn	2, 0x
 854:	3154                	.insn	2, 0x3154
 856:	523a                	.insn	2, 0x523a
 858:	4745                	.insn	2, 0x4745
 85a:	52575f53          	.insn	4, 0x52575f53
 85e:	5449                	.insn	2, 0x5449
 860:	4554                	.insn	2, 0x4554
 862:	0d4e                	.insn	2, 0x0d4e
 864:	000a                	.insn	2, 0x000a
 866:	0000                	.insn	2, 0x
 868:	3154                	.insn	2, 0x3154
 86a:	533a                	.insn	2, 0x533a
 86c:	3d54                	.insn	2, 0x3d54
 86e:	0000                	.insn	2, 0x
 870:	3154                	.insn	2, 0x3154
 872:	463a                	.insn	2, 0x463a
 874:	4941                	.insn	2, 0x4941
 876:	3a4c                	.insn	2, 0x3a4c
 878:	5245                	.insn	2, 0x5245
 87a:	0d52                	.insn	2, 0x0d52
 87c:	000a                	.insn	2, 0x000a
 87e:	0000                	.insn	2, 0x
 880:	3154                	.insn	2, 0x3154
 882:	4f3a                	.insn	2, 0x4f3a
 884:	000a0d4b          	.insn	4, 0x000a0d4b
