
test_clint.elf:     file format elf32-littleriscv


Disassembly of section .text:

00000000 <_start>:
   0:	10002117          	auipc	x2,0x10002
   4:	ff010113          	addi	x2,x2,-16 # 10001ff0 <__stack_top>
   8:	00000013          	addi	x0,x0,0
   c:	00000013          	addi	x0,x0,0
  10:	00000297          	auipc	x5,0x0
  14:	01828293          	addi	x5,x5,24 # 28 <trap_handler>
  18:	30529073          	csrrw	x0,mtvec,x5
  1c:	00000097          	auipc	x1,0x0
  20:	6c0080e7          	jalr	x1,1728(x1) # 6dc <main>

00000024 <_halt>:
  24:	0000006f          	jal	x0,24 <_halt>

00000028 <trap_handler>:
  28:	0000006f          	jal	x0,28 <trap_handler>

0000002c <uart_init>:
  2c:	ff010113          	addi	x2,x2,-16
  30:	00050793          	addi	x15,x10,0
  34:	00058693          	addi	x13,x11,0
  38:	00060713          	addi	x14,x12,0
  3c:	00f11723          	sh	x15,14(x2)
  40:	00068793          	addi	x15,x13,0
  44:	00f106a3          	sb	x15,13(x2)
  48:	00070793          	addi	x15,x14,0
  4c:	00f10623          	sb	x15,12(x2)
  50:	500007b7          	lui	x15,0x50000
  54:	01078793          	addi	x15,x15,16 # 50000010 <__stack_top+0x3fffe020>
  58:	00e15703          	lhu	x14,14(x2)
  5c:	00e7a023          	sw	x14,0(x15)
  60:	0110000f          	fence	w,w
  64:	00c14783          	lbu	x15,12(x2)
  68:	00179793          	slli	x15,x15,0x1
  6c:	0027f693          	andi	x13,x15,2
  70:	00d14783          	lbu	x15,13(x2)
  74:	0017f713          	andi	x14,x15,1
  78:	500007b7          	lui	x15,0x50000
  7c:	00c78793          	addi	x15,x15,12 # 5000000c <__stack_top+0x3fffe01c>
  80:	00e6e733          	or	x14,x13,x14
  84:	00e7a023          	sw	x14,0(x15)
  88:	0110000f          	fence	w,w
  8c:	00000013          	addi	x0,x0,0
  90:	01010113          	addi	x2,x2,16
  94:	00008067          	jalr	x0,0(x1)

00000098 <uart_putc>:
  98:	ff010113          	addi	x2,x2,-16
  9c:	00050793          	addi	x15,x10,0
  a0:	00f107a3          	sb	x15,15(x2)
  a4:	00000013          	addi	x0,x0,0
  a8:	500007b7          	lui	x15,0x50000
  ac:	00878793          	addi	x15,x15,8 # 50000008 <__stack_top+0x3fffe018>
  b0:	0007a783          	lw	x15,0(x15)
  b4:	0027f793          	andi	x15,x15,2
  b8:	fe0798e3          	bne	x15,x0,a8 <uart_putc+0x10>
  bc:	500007b7          	lui	x15,0x50000
  c0:	00f14703          	lbu	x14,15(x2)
  c4:	00e7a023          	sw	x14,0(x15) # 50000000 <__stack_top+0x3fffe010>
  c8:	0110000f          	fence	w,w
  cc:	00000013          	addi	x0,x0,0
  d0:	01010113          	addi	x2,x2,16
  d4:	00008067          	jalr	x0,0(x1)

000000d8 <uart_puts>:
  d8:	fe010113          	addi	x2,x2,-32
  dc:	00112e23          	sw	x1,28(x2)
  e0:	00a12623          	sw	x10,12(x2)
  e4:	0200006f          	jal	x0,104 <uart_puts+0x2c>
  e8:	00c12783          	lw	x15,12(x2)
  ec:	00178713          	addi	x14,x15,1
  f0:	00e12623          	sw	x14,12(x2)
  f4:	0007c783          	lbu	x15,0(x15)
  f8:	00078513          	addi	x10,x15,0
  fc:	00000097          	auipc	x1,0x0
 100:	f9c080e7          	jalr	x1,-100(x1) # 98 <uart_putc>
 104:	00c12783          	lw	x15,12(x2)
 108:	0007c783          	lbu	x15,0(x15)
 10c:	fc079ee3          	bne	x15,x0,e8 <uart_puts+0x10>
 110:	00000013          	addi	x0,x0,0
 114:	500007b7          	lui	x15,0x50000
 118:	00878793          	addi	x15,x15,8 # 50000008 <__stack_top+0x3fffe018>
 11c:	0007a783          	lw	x15,0(x15)
 120:	0017f793          	andi	x15,x15,1
 124:	fe0788e3          	beq	x15,x0,114 <uart_puts+0x3c>
 128:	00000013          	addi	x0,x0,0
 12c:	00000013          	addi	x0,x0,0
 130:	01c12083          	lw	x1,28(x2)
 134:	02010113          	addi	x2,x2,32
 138:	00008067          	jalr	x0,0(x1)

0000013c <uart_puthex8>:
 13c:	fd010113          	addi	x2,x2,-48
 140:	02112623          	sw	x1,44(x2)
 144:	00050793          	addi	x15,x10,0
 148:	00f107a3          	sb	x15,15(x2)
 14c:	100007b7          	lui	x15,0x10000
 150:	00078793          	addi	x15,x15,0 # 10000000 <__data_start>
 154:	00f12e23          	sw	x15,28(x2)
 158:	00f14783          	lbu	x15,15(x2)
 15c:	0047d793          	srli	x15,x15,0x4
 160:	0ff7f793          	andi	x15,x15,255
 164:	00f7f793          	andi	x15,x15,15
 168:	01c12703          	lw	x14,28(x2)
 16c:	00f707b3          	add	x15,x14,x15
 170:	0007c783          	lbu	x15,0(x15)
 174:	00078513          	addi	x10,x15,0
 178:	00000097          	auipc	x1,0x0
 17c:	f20080e7          	jalr	x1,-224(x1) # 98 <uart_putc>
 180:	00f14783          	lbu	x15,15(x2)
 184:	00f7f793          	andi	x15,x15,15
 188:	01c12703          	lw	x14,28(x2)
 18c:	00f707b3          	add	x15,x14,x15
 190:	0007c783          	lbu	x15,0(x15)
 194:	00078513          	addi	x10,x15,0
 198:	00000097          	auipc	x1,0x0
 19c:	f00080e7          	jalr	x1,-256(x1) # 98 <uart_putc>
 1a0:	00000013          	addi	x0,x0,0
 1a4:	02c12083          	lw	x1,44(x2)
 1a8:	03010113          	addi	x2,x2,48
 1ac:	00008067          	jalr	x0,0(x1)

000001b0 <uart_puthex32>:
 1b0:	fe010113          	addi	x2,x2,-32
 1b4:	00112e23          	sw	x1,28(x2)
 1b8:	00a12623          	sw	x10,12(x2)
 1bc:	00c12783          	lw	x15,12(x2)
 1c0:	0187d793          	srli	x15,x15,0x18
 1c4:	0ff7f793          	andi	x15,x15,255
 1c8:	00078513          	addi	x10,x15,0
 1cc:	00000097          	auipc	x1,0x0
 1d0:	f70080e7          	jalr	x1,-144(x1) # 13c <uart_puthex8>
 1d4:	00c12783          	lw	x15,12(x2)
 1d8:	0107d793          	srli	x15,x15,0x10
 1dc:	0ff7f793          	andi	x15,x15,255
 1e0:	00078513          	addi	x10,x15,0
 1e4:	00000097          	auipc	x1,0x0
 1e8:	f58080e7          	jalr	x1,-168(x1) # 13c <uart_puthex8>
 1ec:	00c12783          	lw	x15,12(x2)
 1f0:	0087d793          	srli	x15,x15,0x8
 1f4:	0ff7f793          	andi	x15,x15,255
 1f8:	00078513          	addi	x10,x15,0
 1fc:	00000097          	auipc	x1,0x0
 200:	f40080e7          	jalr	x1,-192(x1) # 13c <uart_puthex8>
 204:	00c12783          	lw	x15,12(x2)
 208:	0ff7f793          	andi	x15,x15,255
 20c:	00078513          	addi	x10,x15,0
 210:	00000097          	auipc	x1,0x0
 214:	f2c080e7          	jalr	x1,-212(x1) # 13c <uart_puthex8>
 218:	00000013          	addi	x0,x0,0
 21c:	01c12083          	lw	x1,28(x2)
 220:	02010113          	addi	x2,x2,32
 224:	00008067          	jalr	x0,0(x1)

00000228 <clint_mtime>:
 228:	ff010113          	addi	x2,x2,-16
 22c:	4000c337          	lui	x6,0x4000c
 230:	ffc30313          	addi	x6,x6,-4 # 4000bffc <__stack_top+0x3000a00c>
 234:	00032303          	lw	x6,0(x6)
 238:	00612623          	sw	x6,12(x2)
 23c:	4000c337          	lui	x6,0x4000c
 240:	ff830313          	addi	x6,x6,-8 # 4000bff8 <__stack_top+0x3000a008>
 244:	00032303          	lw	x6,0(x6)
 248:	00612423          	sw	x6,8(x2)
 24c:	4000c337          	lui	x6,0x4000c
 250:	ffc30313          	addi	x6,x6,-4 # 4000bffc <__stack_top+0x3000a00c>
 254:	00032303          	lw	x6,0(x6)
 258:	00612223          	sw	x6,4(x2)
 25c:	00c12e03          	lw	x28,12(x2)
 260:	00412303          	lw	x6,4(x2)
 264:	fc6e14e3          	bne	x28,x6,22c <clint_mtime+0x4>
 268:	00c12303          	lw	x6,12(x2)
 26c:	00030813          	addi	x16,x6,0
 270:	00000893          	addi	x17,x0,0
 274:	00081793          	slli	x15,x16,0x0
 278:	00000713          	addi	x14,x0,0
 27c:	00812803          	lw	x16,8(x2)
 280:	00080613          	addi	x12,x16,0
 284:	00000693          	addi	x13,x0,0
 288:	00c76533          	or	x10,x14,x12
 28c:	00d7e5b3          	or	x11,x15,x13
 290:	00050713          	addi	x14,x10,0
 294:	00058793          	addi	x15,x11,0
 298:	00070513          	addi	x10,x14,0
 29c:	00078593          	addi	x11,x15,0
 2a0:	01010113          	addi	x2,x2,16
 2a4:	00008067          	jalr	x0,0(x1)

000002a8 <clint_set_mtimecmp>:
 2a8:	ff010113          	addi	x2,x2,-16
 2ac:	00a12423          	sw	x10,8(x2)
 2b0:	00b12623          	sw	x11,12(x2)
 2b4:	400046b7          	lui	x13,0x40004
 2b8:	00468693          	addi	x13,x13,4 # 40004004 <__stack_top+0x30002014>
 2bc:	fff00613          	addi	x12,x0,-1
 2c0:	00c6a023          	sw	x12,0(x13)
 2c4:	0110000f          	fence	w,w
 2c8:	400046b7          	lui	x13,0x40004
 2cc:	00812603          	lw	x12,8(x2)
 2d0:	00c6a023          	sw	x12,0(x13) # 40004000 <__stack_top+0x30002010>
 2d4:	0110000f          	fence	w,w
 2d8:	00c12683          	lw	x13,12(x2)
 2dc:	0006d713          	srli	x14,x13,0x0
 2e0:	00000793          	addi	x15,x0,0
 2e4:	400046b7          	lui	x13,0x40004
 2e8:	00468693          	addi	x13,x13,4 # 40004004 <__stack_top+0x30002014>
 2ec:	00070793          	addi	x15,x14,0
 2f0:	00f6a023          	sw	x15,0(x13)
 2f4:	0110000f          	fence	w,w
 2f8:	00000013          	addi	x0,x0,0
 2fc:	01010113          	addi	x2,x2,16
 300:	00008067          	jalr	x0,0(x1)

00000304 <clint_set_timer_delay_us>:
 304:	fd010113          	addi	x2,x2,-48
 308:	02112623          	sw	x1,44(x2)
 30c:	02812423          	sw	x8,40(x2)
 310:	02912223          	sw	x9,36(x2)
 314:	00a12623          	sw	x10,12(x2)
 318:	00000097          	auipc	x1,0x0
 31c:	f10080e7          	jalr	x1,-240(x1) # 228 <clint_mtime>
 320:	00a12c23          	sw	x10,24(x2)
 324:	00b12e23          	sw	x11,28(x2)
 328:	00c12783          	lw	x15,12(x2)
 32c:	00078413          	addi	x8,x15,0
 330:	00000493          	addi	x9,x0,0
 334:	01812603          	lw	x12,24(x2)
 338:	01c12683          	lw	x13,28(x2)
 33c:	00c40733          	add	x14,x8,x12
 340:	00070593          	addi	x11,x14,0
 344:	0085b5b3          	sltu	x11,x11,x8
 348:	00d487b3          	add	x15,x9,x13
 34c:	00f586b3          	add	x13,x11,x15
 350:	00068793          	addi	x15,x13,0
 354:	00070513          	addi	x10,x14,0
 358:	00078593          	addi	x11,x15,0
 35c:	00000097          	auipc	x1,0x0
 360:	f4c080e7          	jalr	x1,-180(x1) # 2a8 <clint_set_mtimecmp>
 364:	00000013          	addi	x0,x0,0
 368:	02c12083          	lw	x1,44(x2)
 36c:	02812403          	lw	x8,40(x2)
 370:	02412483          	lw	x9,36(x2)
 374:	03010113          	addi	x2,x2,48
 378:	00008067          	jalr	x0,0(x1)

0000037c <clint_clear_timer>:
 37c:	ff010113          	addi	x2,x2,-16
 380:	00112623          	sw	x1,12(x2)
 384:	fff00513          	addi	x10,x0,-1
 388:	fff00593          	addi	x11,x0,-1
 38c:	00000097          	auipc	x1,0x0
 390:	f1c080e7          	jalr	x1,-228(x1) # 2a8 <clint_set_mtimecmp>
 394:	00000013          	addi	x0,x0,0
 398:	00c12083          	lw	x1,12(x2)
 39c:	01010113          	addi	x2,x2,16
 3a0:	00008067          	jalr	x0,0(x1)

000003a4 <clint_sw_irq_set>:
 3a4:	400007b7          	lui	x15,0x40000
 3a8:	00100713          	addi	x14,x0,1
 3ac:	00e7a023          	sw	x14,0(x15) # 40000000 <__stack_top+0x2fffe010>
 3b0:	0110000f          	fence	w,w
 3b4:	00000013          	addi	x0,x0,0
 3b8:	00008067          	jalr	x0,0(x1)

000003bc <clint_sw_irq_clear>:
 3bc:	400007b7          	lui	x15,0x40000
 3c0:	0007a023          	sw	x0,0(x15) # 40000000 <__stack_top+0x2fffe010>
 3c4:	0110000f          	fence	w,w
 3c8:	00000013          	addi	x0,x0,0
 3cc:	00008067          	jalr	x0,0(x1)

000003d0 <irq_set_mtvec>:
 3d0:	ff010113          	addi	x2,x2,-16
 3d4:	00a12623          	sw	x10,12(x2)
 3d8:	00c12783          	lw	x15,12(x2)
 3dc:	30579073          	csrrw	x0,mtvec,x15
 3e0:	00000013          	addi	x0,x0,0
 3e4:	01010113          	addi	x2,x2,16
 3e8:	00008067          	jalr	x0,0(x1)

000003ec <irq_enable_global>:
 3ec:	30046073          	csrrsi	x0,mstatus,8
 3f0:	00000013          	addi	x0,x0,0
 3f4:	00008067          	jalr	x0,0(x1)

000003f8 <irq_disable_global>:
 3f8:	30047073          	csrrci	x0,mstatus,8
 3fc:	00000013          	addi	x0,x0,0
 400:	00008067          	jalr	x0,0(x1)

00000404 <irq_enable_software>:
 404:	00800293          	addi	x5,x0,8
 408:	3042a073          	csrrs	x0,mie,x5
 40c:	00000013          	addi	x0,x0,0
 410:	00008067          	jalr	x0,0(x1)

00000414 <irq_enable_timer>:
 414:	08000293          	addi	x5,x0,128
 418:	3042a073          	csrrs	x0,mie,x5
 41c:	00000013          	addi	x0,x0,0
 420:	00008067          	jalr	x0,0(x1)

00000424 <irq_disable_software>:
 424:	00800293          	addi	x5,x0,8
 428:	3042b073          	csrrc	x0,mie,x5
 42c:	00000013          	addi	x0,x0,0
 430:	00008067          	jalr	x0,0(x1)

00000434 <irq_disable_timer>:
 434:	08000293          	addi	x5,x0,128
 438:	3042b073          	csrrc	x0,mie,x5
 43c:	00000013          	addi	x0,x0,0
 440:	00008067          	jalr	x0,0(x1)

00000444 <irq_mcause>:
 444:	ff010113          	addi	x2,x2,-16
 448:	342027f3          	csrrs	x15,mcause,x0
 44c:	00f12623          	sw	x15,12(x2)
 450:	00c12783          	lw	x15,12(x2)
 454:	00078513          	addi	x10,x15,0
 458:	01010113          	addi	x2,x2,16
 45c:	00008067          	jalr	x0,0(x1)

00000460 <clint_isr>:
 460:	fb010113          	addi	x2,x2,-80
 464:	04112623          	sw	x1,76(x2)
 468:	04512423          	sw	x5,72(x2)
 46c:	04612223          	sw	x6,68(x2)
 470:	04712023          	sw	x7,64(x2)
 474:	02a12e23          	sw	x10,60(x2)
 478:	02b12c23          	sw	x11,56(x2)
 47c:	02c12a23          	sw	x12,52(x2)
 480:	02d12823          	sw	x13,48(x2)
 484:	02e12623          	sw	x14,44(x2)
 488:	02f12423          	sw	x15,40(x2)
 48c:	03012223          	sw	x16,36(x2)
 490:	03112023          	sw	x17,32(x2)
 494:	01c12e23          	sw	x28,28(x2)
 498:	01d12c23          	sw	x29,24(x2)
 49c:	01e12a23          	sw	x30,20(x2)
 4a0:	01f12823          	sw	x31,16(x2)
 4a4:	00000097          	auipc	x1,0x0
 4a8:	fa0080e7          	jalr	x1,-96(x1) # 444 <irq_mcause>
 4ac:	00a12623          	sw	x10,12(x2)
 4b0:	00c12703          	lw	x14,12(x2)
 4b4:	800007b7          	lui	x15,0x80000
 4b8:	00778793          	addi	x15,x15,7 # 80000007 <__stack_top+0x6fffe017>
 4bc:	00f71e63          	bne	x14,x15,4d8 <clint_isr+0x78>
 4c0:	00000097          	auipc	x1,0x0
 4c4:	ebc080e7          	jalr	x1,-324(x1) # 37c <clint_clear_timer>
 4c8:	100007b7          	lui	x15,0x10000
 4cc:	00100713          	addi	x14,x0,1
 4d0:	02e7ae23          	sw	x14,60(x15) # 1000003c <clint_timer_flag>
 4d4:	0280006f          	jal	x0,4fc <clint_isr+0x9c>
 4d8:	00c12703          	lw	x14,12(x2)
 4dc:	800007b7          	lui	x15,0x80000
 4e0:	00378793          	addi	x15,x15,3 # 80000003 <__stack_top+0x6fffe013>
 4e4:	00f71c63          	bne	x14,x15,4fc <clint_isr+0x9c>
 4e8:	00000097          	auipc	x1,0x0
 4ec:	ed4080e7          	jalr	x1,-300(x1) # 3bc <clint_sw_irq_clear>
 4f0:	100007b7          	lui	x15,0x10000
 4f4:	00100713          	addi	x14,x0,1
 4f8:	04e7a023          	sw	x14,64(x15) # 10000040 <clint_sw_flag>
 4fc:	00000013          	addi	x0,x0,0
 500:	04c12083          	lw	x1,76(x2)
 504:	04812283          	lw	x5,72(x2)
 508:	04412303          	lw	x6,68(x2)
 50c:	04012383          	lw	x7,64(x2)
 510:	03c12503          	lw	x10,60(x2)
 514:	03812583          	lw	x11,56(x2)
 518:	03412603          	lw	x12,52(x2)
 51c:	03012683          	lw	x13,48(x2)
 520:	02c12703          	lw	x14,44(x2)
 524:	02812783          	lw	x15,40(x2)
 528:	02412803          	lw	x16,36(x2)
 52c:	02012883          	lw	x17,32(x2)
 530:	01c12e03          	lw	x28,28(x2)
 534:	01812e83          	lw	x29,24(x2)
 538:	01412f03          	lw	x30,20(x2)
 53c:	01012f83          	lw	x31,16(x2)
 540:	05010113          	addi	x2,x2,80
 544:	30200073          	mret

00000548 <run_clint_test>:
 548:	fd010113          	addi	x2,x2,-48
 54c:	02112623          	sw	x1,44(x2)
 550:	00000613          	addi	x12,x0,0
 554:	00000593          	addi	x11,x0,0
 558:	36400513          	addi	x10,x0,868
 55c:	00000097          	auipc	x1,0x0
 560:	ad0080e7          	jalr	x1,-1328(x1) # 2c <uart_init>
 564:	00000097          	auipc	x1,0x0
 568:	cc4080e7          	jalr	x1,-828(x1) # 228 <clint_mtime>
 56c:	00a12823          	sw	x10,16(x2)
 570:	00b12a23          	sw	x11,20(x2)
 574:	00012c23          	sw	x0,24(x2)
 578:	0140006f          	jal	x0,58c <run_clint_test+0x44>
 57c:	00000013          	addi	x0,x0,0
 580:	01812783          	lw	x15,24(x2)
 584:	00178793          	addi	x15,x15,1
 588:	00f12c23          	sw	x15,24(x2)
 58c:	01812703          	lw	x14,24(x2)
 590:	0c700793          	addi	x15,x0,199
 594:	fee7f4e3          	bgeu	x15,x14,57c <run_clint_test+0x34>
 598:	00000097          	auipc	x1,0x0
 59c:	c90080e7          	jalr	x1,-880(x1) # 228 <clint_mtime>
 5a0:	00a12423          	sw	x10,8(x2)
 5a4:	00b12623          	sw	x11,12(x2)
 5a8:	00c12703          	lw	x14,12(x2)
 5ac:	01412783          	lw	x15,20(x2)
 5b0:	02e7e263          	bltu	x15,x14,5d4 <run_clint_test+0x8c>
 5b4:	00c12703          	lw	x14,12(x2)
 5b8:	01412783          	lw	x15,20(x2)
 5bc:	00f71863          	bne	x14,x15,5cc <run_clint_test+0x84>
 5c0:	00812703          	lw	x14,8(x2)
 5c4:	01012783          	lw	x15,16(x2)
 5c8:	00e7e663          	bltu	x15,x14,5d4 <run_clint_test+0x8c>
 5cc:	fff00793          	addi	x15,x0,-1
 5d0:	0fc0006f          	jal	x0,6cc <run_clint_test+0x184>
 5d4:	100007b7          	lui	x15,0x10000
 5d8:	0207ae23          	sw	x0,60(x15) # 1000003c <clint_timer_flag>
 5dc:	000007b7          	lui	x15,0x0
 5e0:	46078513          	addi	x10,x15,1120 # 460 <clint_isr>
 5e4:	00000097          	auipc	x1,0x0
 5e8:	dec080e7          	jalr	x1,-532(x1) # 3d0 <irq_set_mtvec>
 5ec:	00000097          	auipc	x1,0x0
 5f0:	e28080e7          	jalr	x1,-472(x1) # 414 <irq_enable_timer>
 5f4:	00000097          	auipc	x1,0x0
 5f8:	df8080e7          	jalr	x1,-520(x1) # 3ec <irq_enable_global>
 5fc:	06400513          	addi	x10,x0,100
 600:	00000097          	auipc	x1,0x0
 604:	d04080e7          	jalr	x1,-764(x1) # 304 <clint_set_timer_delay_us>
 608:	000807b7          	lui	x15,0x80
 60c:	fff78793          	addi	x15,x15,-1 # 7ffff <__data_load+0x7f8bb>
 610:	00f12e23          	sw	x15,28(x2)
 614:	0300006f          	jal	x0,644 <run_clint_test+0xfc>
 618:	01c12783          	lw	x15,28(x2)
 61c:	fff78793          	addi	x15,x15,-1
 620:	00f12e23          	sw	x15,28(x2)
 624:	01c12783          	lw	x15,28(x2)
 628:	00079e63          	bne	x15,x0,644 <run_clint_test+0xfc>
 62c:	00000097          	auipc	x1,0x0
 630:	dcc080e7          	jalr	x1,-564(x1) # 3f8 <irq_disable_global>
 634:	00000097          	auipc	x1,0x0
 638:	e00080e7          	jalr	x1,-512(x1) # 434 <irq_disable_timer>
 63c:	ffe00793          	addi	x15,x0,-2
 640:	08c0006f          	jal	x0,6cc <run_clint_test+0x184>
 644:	100007b7          	lui	x15,0x10000
 648:	03c7a783          	lw	x15,60(x15) # 1000003c <clint_timer_flag>
 64c:	fc0786e3          	beq	x15,x0,618 <run_clint_test+0xd0>
 650:	00000097          	auipc	x1,0x0
 654:	de4080e7          	jalr	x1,-540(x1) # 434 <irq_disable_timer>
 658:	100007b7          	lui	x15,0x10000
 65c:	0407a023          	sw	x0,64(x15) # 10000040 <clint_sw_flag>
 660:	00000097          	auipc	x1,0x0
 664:	da4080e7          	jalr	x1,-604(x1) # 404 <irq_enable_software>
 668:	00000097          	auipc	x1,0x0
 66c:	d3c080e7          	jalr	x1,-708(x1) # 3a4 <clint_sw_irq_set>
 670:	000407b7          	lui	x15,0x40
 674:	fff78793          	addi	x15,x15,-1 # 3ffff <__data_load+0x3f8bb>
 678:	00f12e23          	sw	x15,28(x2)
 67c:	0300006f          	jal	x0,6ac <run_clint_test+0x164>
 680:	01c12783          	lw	x15,28(x2)
 684:	fff78793          	addi	x15,x15,-1
 688:	00f12e23          	sw	x15,28(x2)
 68c:	01c12783          	lw	x15,28(x2)
 690:	00079e63          	bne	x15,x0,6ac <run_clint_test+0x164>
 694:	00000097          	auipc	x1,0x0
 698:	d64080e7          	jalr	x1,-668(x1) # 3f8 <irq_disable_global>
 69c:	00000097          	auipc	x1,0x0
 6a0:	d88080e7          	jalr	x1,-632(x1) # 424 <irq_disable_software>
 6a4:	ffd00793          	addi	x15,x0,-3
 6a8:	0240006f          	jal	x0,6cc <run_clint_test+0x184>
 6ac:	100007b7          	lui	x15,0x10000
 6b0:	0407a783          	lw	x15,64(x15) # 10000040 <clint_sw_flag>
 6b4:	fc0786e3          	beq	x15,x0,680 <run_clint_test+0x138>
 6b8:	00000097          	auipc	x1,0x0
 6bc:	d6c080e7          	jalr	x1,-660(x1) # 424 <irq_disable_software>
 6c0:	00000097          	auipc	x1,0x0
 6c4:	d38080e7          	jalr	x1,-712(x1) # 3f8 <irq_disable_global>
 6c8:	00000793          	addi	x15,x0,0
 6cc:	00078513          	addi	x10,x15,0
 6d0:	02c12083          	lw	x1,44(x2)
 6d4:	03010113          	addi	x2,x2,48
 6d8:	00008067          	jalr	x0,0(x1)

000006dc <main>:
 6dc:	fe010113          	addi	x2,x2,-32
 6e0:	00112e23          	sw	x1,28(x2)
 6e4:	00000097          	auipc	x1,0x0
 6e8:	e64080e7          	jalr	x1,-412(x1) # 548 <run_clint_test>
 6ec:	00a12623          	sw	x10,12(x2)
 6f0:	00c12783          	lw	x15,12(x2)
 6f4:	00079c63          	bne	x15,x0,70c <main+0x30>
 6f8:	100007b7          	lui	x15,0x10000
 6fc:	01478513          	addi	x10,x15,20 # 10000014 <__data_start+0x14>
 700:	00000097          	auipc	x1,0x0
 704:	9d8080e7          	jalr	x1,-1576(x1) # d8 <uart_puts>
 708:	0340006f          	jal	x0,73c <main+0x60>
 70c:	100007b7          	lui	x15,0x10000
 710:	02478513          	addi	x10,x15,36 # 10000024 <__data_start+0x24>
 714:	00000097          	auipc	x1,0x0
 718:	9c4080e7          	jalr	x1,-1596(x1) # d8 <uart_puts>
 71c:	00c12783          	lw	x15,12(x2)
 720:	00078513          	addi	x10,x15,0
 724:	00000097          	auipc	x1,0x0
 728:	a8c080e7          	jalr	x1,-1396(x1) # 1b0 <uart_puthex32>
 72c:	100007b7          	lui	x15,0x10000
 730:	03878513          	addi	x10,x15,56 # 10000038 <__data_start+0x38>
 734:	00000097          	auipc	x1,0x0
 738:	9a4080e7          	jalr	x1,-1628(x1) # d8 <uart_puts>
 73c:	00000013          	addi	x0,x0,0
 740:	ffdff06f          	jal	x0,73c <main+0x60>
