
test_dma_uart.elf:     file format elf32-littleriscv


Disassembly of section .text:

00000000 <_start>:
   0:	10002117          	auipc	x2,0x10002
   4:	ff010113          	addi	x2,x2,-16 # 10001ff0 <__stack_top>
   8:	00000013          	addi	x0,x0,0
   c:	00000013          	addi	x0,x0,0
  10:	00000297          	auipc	x5,0x0
  14:	01828293          	addi	x5,x5,24 # 28 <trap_handler>
  18:	30529073          	csrrw	x0,mtvec,x5
  1c:	00000097          	auipc	x1,0x0
  20:	59c080e7          	jalr	x1,1436(x1) # 5b8 <main>

00000024 <_halt>:
  24:	0000006f          	jal	x0,24 <_halt>

00000028 <trap_handler>:
  28:	0000006f          	jal	x0,28 <trap_handler>

0000002c <uart_init>:
  2c:	ff010113          	addi	x2,x2,-16
  30:	00050793          	addi	x15,x10,0
  34:	00058693          	addi	x13,x11,0
  38:	00060713          	addi	x14,x12,0
  3c:	00f11723          	sh	x15,14(x2)
  40:	00068793          	addi	x15,x13,0
  44:	00f106a3          	sb	x15,13(x2)
  48:	00070793          	addi	x15,x14,0
  4c:	00f10623          	sb	x15,12(x2)
  50:	500007b7          	lui	x15,0x50000
  54:	01078793          	addi	x15,x15,16 # 50000010 <__stack_top+0x3fffe020>
  58:	00e15703          	lhu	x14,14(x2)
  5c:	00e7a023          	sw	x14,0(x15)
  60:	0110000f          	fence	w,w
  64:	00c14783          	lbu	x15,12(x2)
  68:	00179793          	slli	x15,x15,0x1
  6c:	0027f693          	andi	x13,x15,2
  70:	00d14783          	lbu	x15,13(x2)
  74:	0017f713          	andi	x14,x15,1
  78:	500007b7          	lui	x15,0x50000
  7c:	00c78793          	addi	x15,x15,12 # 5000000c <__stack_top+0x3fffe01c>
  80:	00e6e733          	or	x14,x13,x14
  84:	00e7a023          	sw	x14,0(x15)
  88:	0110000f          	fence	w,w
  8c:	00000013          	addi	x0,x0,0
  90:	01010113          	addi	x2,x2,16
  94:	00008067          	jalr	x0,0(x1)

00000098 <uart_putc>:
  98:	ff010113          	addi	x2,x2,-16
  9c:	00050793          	addi	x15,x10,0
  a0:	00f107a3          	sb	x15,15(x2)
  a4:	00000013          	addi	x0,x0,0
  a8:	500007b7          	lui	x15,0x50000
  ac:	00878793          	addi	x15,x15,8 # 50000008 <__stack_top+0x3fffe018>
  b0:	0007a783          	lw	x15,0(x15)
  b4:	0027f793          	andi	x15,x15,2
  b8:	fe0798e3          	bne	x15,x0,a8 <uart_putc+0x10>
  bc:	500007b7          	lui	x15,0x50000
  c0:	00f14703          	lbu	x14,15(x2)
  c4:	00e7a023          	sw	x14,0(x15) # 50000000 <__stack_top+0x3fffe010>
  c8:	0110000f          	fence	w,w
  cc:	00000013          	addi	x0,x0,0
  d0:	01010113          	addi	x2,x2,16
  d4:	00008067          	jalr	x0,0(x1)

000000d8 <uart_puts>:
  d8:	fe010113          	addi	x2,x2,-32
  dc:	00112e23          	sw	x1,28(x2)
  e0:	00a12623          	sw	x10,12(x2)
  e4:	0200006f          	jal	x0,104 <uart_puts+0x2c>
  e8:	00c12783          	lw	x15,12(x2)
  ec:	00178713          	addi	x14,x15,1
  f0:	00e12623          	sw	x14,12(x2)
  f4:	0007c783          	lbu	x15,0(x15)
  f8:	00078513          	addi	x10,x15,0
  fc:	00000097          	auipc	x1,0x0
 100:	f9c080e7          	jalr	x1,-100(x1) # 98 <uart_putc>
 104:	00c12783          	lw	x15,12(x2)
 108:	0007c783          	lbu	x15,0(x15)
 10c:	fc079ee3          	bne	x15,x0,e8 <uart_puts+0x10>
 110:	00000013          	addi	x0,x0,0
 114:	500007b7          	lui	x15,0x50000
 118:	00878793          	addi	x15,x15,8 # 50000008 <__stack_top+0x3fffe018>
 11c:	0007a783          	lw	x15,0(x15)
 120:	0017f793          	andi	x15,x15,1
 124:	fe0788e3          	beq	x15,x0,114 <uart_puts+0x3c>
 128:	00000013          	addi	x0,x0,0
 12c:	00000013          	addi	x0,x0,0
 130:	01c12083          	lw	x1,28(x2)
 134:	02010113          	addi	x2,x2,32
 138:	00008067          	jalr	x0,0(x1)

0000013c <uart_puthex8>:
 13c:	fd010113          	addi	x2,x2,-48
 140:	02112623          	sw	x1,44(x2)
 144:	00050793          	addi	x15,x10,0
 148:	00f107a3          	sb	x15,15(x2)
 14c:	100007b7          	lui	x15,0x10000
 150:	00078793          	addi	x15,x15,0 # 10000000 <__data_start>
 154:	00f12e23          	sw	x15,28(x2)
 158:	00f14783          	lbu	x15,15(x2)
 15c:	0047d793          	srli	x15,x15,0x4
 160:	0ff7f793          	andi	x15,x15,255
 164:	00f7f793          	andi	x15,x15,15
 168:	01c12703          	lw	x14,28(x2)
 16c:	00f707b3          	add	x15,x14,x15
 170:	0007c783          	lbu	x15,0(x15)
 174:	00078513          	addi	x10,x15,0
 178:	00000097          	auipc	x1,0x0
 17c:	f20080e7          	jalr	x1,-224(x1) # 98 <uart_putc>
 180:	00f14783          	lbu	x15,15(x2)
 184:	00f7f793          	andi	x15,x15,15
 188:	01c12703          	lw	x14,28(x2)
 18c:	00f707b3          	add	x15,x14,x15
 190:	0007c783          	lbu	x15,0(x15)
 194:	00078513          	addi	x10,x15,0
 198:	00000097          	auipc	x1,0x0
 19c:	f00080e7          	jalr	x1,-256(x1) # 98 <uart_putc>
 1a0:	00000013          	addi	x0,x0,0
 1a4:	02c12083          	lw	x1,44(x2)
 1a8:	03010113          	addi	x2,x2,48
 1ac:	00008067          	jalr	x0,0(x1)

000001b0 <uart_puthex32>:
 1b0:	fe010113          	addi	x2,x2,-32
 1b4:	00112e23          	sw	x1,28(x2)
 1b8:	00a12623          	sw	x10,12(x2)
 1bc:	00c12783          	lw	x15,12(x2)
 1c0:	0187d793          	srli	x15,x15,0x18
 1c4:	0ff7f793          	andi	x15,x15,255
 1c8:	00078513          	addi	x10,x15,0
 1cc:	00000097          	auipc	x1,0x0
 1d0:	f70080e7          	jalr	x1,-144(x1) # 13c <uart_puthex8>
 1d4:	00c12783          	lw	x15,12(x2)
 1d8:	0107d793          	srli	x15,x15,0x10
 1dc:	0ff7f793          	andi	x15,x15,255
 1e0:	00078513          	addi	x10,x15,0
 1e4:	00000097          	auipc	x1,0x0
 1e8:	f58080e7          	jalr	x1,-168(x1) # 13c <uart_puthex8>
 1ec:	00c12783          	lw	x15,12(x2)
 1f0:	0087d793          	srli	x15,x15,0x8
 1f4:	0ff7f793          	andi	x15,x15,255
 1f8:	00078513          	addi	x10,x15,0
 1fc:	00000097          	auipc	x1,0x0
 200:	f40080e7          	jalr	x1,-192(x1) # 13c <uart_puthex8>
 204:	00c12783          	lw	x15,12(x2)
 208:	0ff7f793          	andi	x15,x15,255
 20c:	00078513          	addi	x10,x15,0
 210:	00000097          	auipc	x1,0x0
 214:	f2c080e7          	jalr	x1,-212(x1) # 13c <uart_puthex8>
 218:	00000013          	addi	x0,x0,0
 21c:	01c12083          	lw	x1,28(x2)
 220:	02010113          	addi	x2,x2,32
 224:	00008067          	jalr	x0,0(x1)

00000228 <dma_clear_all_status>:
 228:	0ff00793          	addi	x15,x0,255
 22c:	600102b7          	lui	x5,0x60010
 230:	08f2a023          	sw	x15,128(x5) # 60010080 <__stack_top+0x5000e090>
 234:	0110000f          	fence	w,w
 238:	00000013          	addi	x0,x0,0
 23c:	00008067          	jalr	x0,0(x1)

00000240 <dma_ch0_setup>:
 240:	ff010113          	addi	x2,x2,-16
 244:	00a12623          	sw	x10,12(x2)
 248:	00b12423          	sw	x11,8(x2)
 24c:	00c12223          	sw	x12,4(x2)
 250:	00c12783          	lw	x15,12(x2)
 254:	600102b7          	lui	x5,0x60010
 258:	00f2a023          	sw	x15,0(x5) # 60010000 <__stack_top+0x5000e010>
 25c:	0110000f          	fence	w,w
 260:	00812783          	lw	x15,8(x2)
 264:	600102b7          	lui	x5,0x60010
 268:	00f2a223          	sw	x15,4(x5) # 60010004 <__stack_top+0x5000e014>
 26c:	0110000f          	fence	w,w
 270:	00412783          	lw	x15,4(x2)
 274:	600102b7          	lui	x5,0x60010
 278:	00f2a423          	sw	x15,8(x5) # 60010008 <__stack_top+0x5000e018>
 27c:	0110000f          	fence	w,w
 280:	00000013          	addi	x0,x0,0
 284:	01010113          	addi	x2,x2,16
 288:	00008067          	jalr	x0,0(x1)

0000028c <dma_ch0_start>:
 28c:	00300793          	addi	x15,x0,3
 290:	600102b7          	lui	x5,0x60010
 294:	00f2a623          	sw	x15,12(x5) # 6001000c <__stack_top+0x5000e01c>
 298:	0110000f          	fence	w,w
 29c:	00000013          	addi	x0,x0,0
 2a0:	00008067          	jalr	x0,0(x1)

000002a4 <dma_wait>:
 2a4:	fe010113          	addi	x2,x2,-32
 2a8:	00050793          	addi	x15,x10,0
 2ac:	00f107a3          	sb	x15,15(x2)
 2b0:	600102b7          	lui	x5,0x60010
 2b4:	0802a783          	lw	x15,128(x5) # 60010080 <__stack_top+0x5000e090>
 2b8:	00f12e23          	sw	x15,28(x2)
 2bc:	00f14783          	lbu	x15,15(x2)
 2c0:	00100713          	addi	x14,x0,1
 2c4:	00f71733          	sll	x14,x14,x15
 2c8:	00f14783          	lbu	x15,15(x2)
 2cc:	00478793          	addi	x15,x15,4
 2d0:	00100693          	addi	x13,x0,1
 2d4:	00f697b3          	sll	x15,x13,x15
 2d8:	00f76733          	or	x14,x14,x15
 2dc:	01c12783          	lw	x15,28(x2)
 2e0:	00f777b3          	and	x15,x14,x15
 2e4:	fc0786e3          	beq	x15,x0,2b0 <dma_wait+0xc>
 2e8:	01c12783          	lw	x15,28(x2)
 2ec:	00078513          	addi	x10,x15,0
 2f0:	02010113          	addi	x2,x2,32
 2f4:	00008067          	jalr	x0,0(x1)

000002f8 <run_dma_uart_test>:
 2f8:	fd010113          	addi	x2,x2,-48
 2fc:	02112623          	sw	x1,44(x2)
 300:	100007b7          	lui	x15,0x10000
 304:	33078793          	addi	x15,x15,816 # 10000330 <__bss_end+0x2b8>
 308:	00f12c23          	sw	x15,24(x2)
 30c:	100007b7          	lui	x15,0x10000
 310:	34078793          	addi	x15,x15,832 # 10000340 <__bss_end+0x2c8>
 314:	00f12a23          	sw	x15,20(x2)
 318:	00000613          	addi	x12,x0,0
 31c:	00000593          	addi	x11,x0,0
 320:	36400513          	addi	x10,x0,868
 324:	00000097          	auipc	x1,0x0
 328:	d08080e7          	jalr	x1,-760(x1) # 2c <uart_init>
 32c:	100007b7          	lui	x15,0x10000
 330:	01478513          	addi	x10,x15,20 # 10000014 <__data_start+0x14>
 334:	00000097          	auipc	x1,0x0
 338:	da4080e7          	jalr	x1,-604(x1) # d8 <uart_puts>
 33c:	04100793          	addi	x15,x0,65
 340:	00f109a3          	sb	x15,19(x2)
 344:	01314783          	lbu	x15,19(x2)
 348:	00778793          	addi	x15,x15,7
 34c:	0ff7f713          	andi	x14,x15,255
 350:	01812783          	lw	x15,24(x2)
 354:	00e78023          	sb	x14,0(x15)
 358:	01812783          	lw	x15,24(x2)
 35c:	00178793          	addi	x15,x15,1
 360:	01314703          	lbu	x14,19(x2)
 364:	00470713          	addi	x14,x14,4
 368:	0ff77713          	andi	x14,x14,255
 36c:	00e78023          	sb	x14,0(x15)
 370:	01812783          	lw	x15,24(x2)
 374:	00278793          	addi	x15,x15,2
 378:	01314703          	lbu	x14,19(x2)
 37c:	00b70713          	addi	x14,x14,11
 380:	0ff77713          	andi	x14,x14,255
 384:	00e78023          	sb	x14,0(x15)
 388:	01812783          	lw	x15,24(x2)
 38c:	00378793          	addi	x15,x15,3
 390:	01314703          	lbu	x14,19(x2)
 394:	00b70713          	addi	x14,x14,11
 398:	0ff77713          	andi	x14,x14,255
 39c:	00e78023          	sb	x14,0(x15)
 3a0:	01812783          	lw	x15,24(x2)
 3a4:	00478793          	addi	x15,x15,4
 3a8:	01314703          	lbu	x14,19(x2)
 3ac:	00e70713          	addi	x14,x14,14
 3b0:	0ff77713          	andi	x14,x14,255
 3b4:	00e78023          	sb	x14,0(x15)
 3b8:	01812783          	lw	x15,24(x2)
 3bc:	00578793          	addi	x15,x15,5
 3c0:	02000713          	addi	x14,x0,32
 3c4:	00e78023          	sb	x14,0(x15)
 3c8:	01812783          	lw	x15,24(x2)
 3cc:	00678793          	addi	x15,x15,6
 3d0:	01314703          	lbu	x14,19(x2)
 3d4:	00370713          	addi	x14,x14,3
 3d8:	0ff77713          	andi	x14,x14,255
 3dc:	00e78023          	sb	x14,0(x15)
 3e0:	01812783          	lw	x15,24(x2)
 3e4:	00778793          	addi	x15,x15,7
 3e8:	01314703          	lbu	x14,19(x2)
 3ec:	00c70713          	addi	x14,x14,12
 3f0:	0ff77713          	andi	x14,x14,255
 3f4:	00e78023          	sb	x14,0(x15)
 3f8:	01812783          	lw	x15,24(x2)
 3fc:	00878793          	addi	x15,x15,8
 400:	01314703          	lbu	x14,19(x2)
 404:	00e78023          	sb	x14,0(x15)
 408:	01812783          	lw	x15,24(x2)
 40c:	00978793          	addi	x15,x15,9
 410:	02d00713          	addi	x14,x0,45
 414:	00e78023          	sb	x14,0(x15)
 418:	01812783          	lw	x15,24(x2)
 41c:	00a78793          	addi	x15,x15,10
 420:	01314703          	lbu	x14,19(x2)
 424:	01270713          	addi	x14,x14,18
 428:	0ff77713          	andi	x14,x14,255
 42c:	00e78023          	sb	x14,0(x15)
 430:	01812783          	lw	x15,24(x2)
 434:	00b78793          	addi	x15,x15,11
 438:	01314703          	lbu	x14,19(x2)
 43c:	00e70713          	addi	x14,x14,14
 440:	0ff77713          	andi	x14,x14,255
 444:	00e78023          	sb	x14,0(x15)
 448:	01812783          	lw	x15,24(x2)
 44c:	00c78793          	addi	x15,x15,12
 450:	01314703          	lbu	x14,19(x2)
 454:	00270713          	addi	x14,x14,2
 458:	0ff77713          	andi	x14,x14,255
 45c:	00e78023          	sb	x14,0(x15)
 460:	01812783          	lw	x15,24(x2)
 464:	00d78793          	addi	x15,x15,13
 468:	02100713          	addi	x14,x0,33
 46c:	00e78023          	sb	x14,0(x15)
 470:	01812783          	lw	x15,24(x2)
 474:	00e78793          	addi	x15,x15,14
 478:	00d00713          	addi	x14,x0,13
 47c:	00e78023          	sb	x14,0(x15)
 480:	01812783          	lw	x15,24(x2)
 484:	00f78793          	addi	x15,x15,15
 488:	00a00713          	addi	x14,x0,10
 48c:	00e78023          	sb	x14,0(x15)
 490:	0330000f          	fence	rw,rw
 494:	00000097          	auipc	x1,0x0
 498:	d94080e7          	jalr	x1,-620(x1) # 228 <dma_clear_all_status>
 49c:	01000613          	addi	x12,x0,16
 4a0:	100007b7          	lui	x15,0x10000
 4a4:	34078593          	addi	x11,x15,832 # 10000340 <__bss_end+0x2c8>
 4a8:	100007b7          	lui	x15,0x10000
 4ac:	33078513          	addi	x10,x15,816 # 10000330 <__bss_end+0x2b8>
 4b0:	00000097          	auipc	x1,0x0
 4b4:	d90080e7          	jalr	x1,-624(x1) # 240 <dma_ch0_setup>
 4b8:	00000097          	auipc	x1,0x0
 4bc:	dd4080e7          	jalr	x1,-556(x1) # 28c <dma_ch0_start>
 4c0:	00000513          	addi	x10,x0,0
 4c4:	00000097          	auipc	x1,0x0
 4c8:	de0080e7          	jalr	x1,-544(x1) # 2a4 <dma_wait>
 4cc:	00a12623          	sw	x10,12(x2)
 4d0:	00c12783          	lw	x15,12(x2)
 4d4:	0107f793          	andi	x15,x15,16
 4d8:	04078463          	beq	x15,x0,520 <run_dma_uart_test+0x228>
 4dc:	100007b7          	lui	x15,0x10000
 4e0:	04078513          	addi	x10,x15,64 # 10000040 <__data_start+0x40>
 4e4:	00000097          	auipc	x1,0x0
 4e8:	bf4080e7          	jalr	x1,-1036(x1) # d8 <uart_puts>
 4ec:	00c12503          	lw	x10,12(x2)
 4f0:	00000097          	auipc	x1,0x0
 4f4:	cc0080e7          	jalr	x1,-832(x1) # 1b0 <uart_puthex32>
 4f8:	100007b7          	lui	x15,0x10000
 4fc:	05878513          	addi	x10,x15,88 # 10000058 <__data_start+0x58>
 500:	00000097          	auipc	x1,0x0
 504:	bd8080e7          	jalr	x1,-1064(x1) # d8 <uart_puts>
 508:	100007b7          	lui	x15,0x10000
 50c:	1c078793          	addi	x15,x15,448 # 100001c0 <__bss_end+0x148>
 510:	fff00713          	addi	x14,x0,-1
 514:	04e7ac23          	sw	x14,88(x15)
 518:	fff00793          	addi	x15,x0,-1
 51c:	08c0006f          	jal	x0,5a8 <run_dma_uart_test+0x2b0>
 520:	0220000f          	fence	r,r
 524:	100007b7          	lui	x15,0x10000
 528:	05c78513          	addi	x10,x15,92 # 1000005c <__data_start+0x5c>
 52c:	00000097          	auipc	x1,0x0
 530:	bac080e7          	jalr	x1,-1108(x1) # d8 <uart_puts>
 534:	00012e23          	sw	x0,28(x2)
 538:	03c0006f          	jal	x0,574 <run_dma_uart_test+0x27c>
 53c:	01c12783          	lw	x15,28(x2)
 540:	01412703          	lw	x14,20(x2)
 544:	00f707b3          	add	x15,x14,x15
 548:	0007c783          	lbu	x15,0(x15)
 54c:	00f105a3          	sb	x15,11(x2)
 550:	00b14783          	lbu	x15,11(x2)
 554:	02078863          	beq	x15,x0,584 <run_dma_uart_test+0x28c>
 558:	00b14783          	lbu	x15,11(x2)
 55c:	00078513          	addi	x10,x15,0
 560:	00000097          	auipc	x1,0x0
 564:	b38080e7          	jalr	x1,-1224(x1) # 98 <uart_putc>
 568:	01c12783          	lw	x15,28(x2)
 56c:	00178793          	addi	x15,x15,1
 570:	00f12e23          	sw	x15,28(x2)
 574:	01c12703          	lw	x14,28(x2)
 578:	00f00793          	addi	x15,x0,15
 57c:	fce7d0e3          	bge	x15,x14,53c <run_dma_uart_test+0x244>
 580:	0080006f          	jal	x0,588 <run_dma_uart_test+0x290>
 584:	00000013          	addi	x0,x0,0
 588:	100007b7          	lui	x15,0x10000
 58c:	06478513          	addi	x10,x15,100 # 10000064 <__data_start+0x64>
 590:	00000097          	auipc	x1,0x0
 594:	b48080e7          	jalr	x1,-1208(x1) # d8 <uart_puts>
 598:	100007b7          	lui	x15,0x10000
 59c:	1c078793          	addi	x15,x15,448 # 100001c0 <__bss_end+0x148>
 5a0:	0407ac23          	sw	x0,88(x15)
 5a4:	00000793          	addi	x15,x0,0
 5a8:	00078513          	addi	x10,x15,0
 5ac:	02c12083          	lw	x1,44(x2)
 5b0:	03010113          	addi	x2,x2,48
 5b4:	00008067          	jalr	x0,0(x1)

000005b8 <main>:
 5b8:	fe010113          	addi	x2,x2,-32
 5bc:	00112e23          	sw	x1,28(x2)
 5c0:	00000097          	auipc	x1,0x0
 5c4:	d38080e7          	jalr	x1,-712(x1) # 2f8 <run_dma_uart_test>
 5c8:	00a12623          	sw	x10,12(x2)
 5cc:	00c12783          	lw	x15,12(x2)
 5d0:	00078a63          	beq	x15,x0,5e4 <main+0x2c>
 5d4:	100007b7          	lui	x15,0x10000
 5d8:	1c078793          	addi	x15,x15,448 # 100001c0 <__bss_end+0x148>
 5dc:	fff00713          	addi	x14,x0,-1
 5e0:	04e7ac23          	sw	x14,88(x15)
 5e4:	00000013          	addi	x0,x0,0
 5e8:	ffdff06f          	jal	x0,5e4 <main+0x2c>
