
test_uart_simple.elf:     file format elf32-littleriscv


Disassembly of section .text:

00000000 <_start>:
   0:	10002117          	auipc	x2,0x10002
   4:	ff010113          	addi	x2,x2,-16 # 10001ff0 <__stack_top>
   8:	00000013          	addi	x0,x0,0
   c:	00000013          	addi	x0,x0,0
  10:	00000297          	auipc	x5,0x0
  14:	01828293          	addi	x5,x5,24 # 28 <trap_handler>
  18:	30529073          	csrrw	x0,mtvec,x5
  1c:	00000097          	auipc	x1,0x0
  20:	0bc080e7          	jalr	x1,188(x1) # d8 <main>

00000024 <_halt>:
  24:	0000006f          	jal	x0,24 <_halt>

00000028 <trap_handler>:
  28:	0000006f          	jal	x0,28 <trap_handler>

0000002c <uart_init>:
  2c:	ff010113          	addi	x2,x2,-16
  30:	00050793          	addi	x15,x10,0
  34:	00058693          	addi	x13,x11,0
  38:	00060713          	addi	x14,x12,0
  3c:	00f11723          	sh	x15,14(x2)
  40:	00068793          	addi	x15,x13,0
  44:	00f106a3          	sb	x15,13(x2)
  48:	00070793          	addi	x15,x14,0
  4c:	00f10623          	sb	x15,12(x2)
  50:	500007b7          	lui	x15,0x50000
  54:	01078793          	addi	x15,x15,16 # 50000010 <__stack_top+0x3fffe020>
  58:	00e15703          	lhu	x14,14(x2)
  5c:	00e7a023          	sw	x14,0(x15)
  60:	0110000f          	fence	w,w
  64:	00c14783          	lbu	x15,12(x2)
  68:	00179793          	slli	x15,x15,0x1
  6c:	0027f693          	andi	x13,x15,2
  70:	00d14783          	lbu	x15,13(x2)
  74:	0017f713          	andi	x14,x15,1
  78:	500007b7          	lui	x15,0x50000
  7c:	00c78793          	addi	x15,x15,12 # 5000000c <__stack_top+0x3fffe01c>
  80:	00e6e733          	or	x14,x13,x14
  84:	00e7a023          	sw	x14,0(x15)
  88:	0110000f          	fence	w,w
  8c:	00000013          	addi	x0,x0,0
  90:	01010113          	addi	x2,x2,16
  94:	00008067          	jalr	x0,0(x1)

00000098 <uart_putc>:
  98:	ff010113          	addi	x2,x2,-16
  9c:	00050793          	addi	x15,x10,0
  a0:	00f107a3          	sb	x15,15(x2)
  a4:	00000013          	addi	x0,x0,0
  a8:	500007b7          	lui	x15,0x50000
  ac:	00878793          	addi	x15,x15,8 # 50000008 <__stack_top+0x3fffe018>
  b0:	0007a783          	lw	x15,0(x15)
  b4:	0027f793          	andi	x15,x15,2
  b8:	fe0798e3          	bne	x15,x0,a8 <uart_putc+0x10>
  bc:	500007b7          	lui	x15,0x50000
  c0:	00f14703          	lbu	x14,15(x2)
  c4:	00e7a023          	sw	x14,0(x15) # 50000000 <__stack_top+0x3fffe010>
  c8:	0110000f          	fence	w,w
  cc:	00000013          	addi	x0,x0,0
  d0:	01010113          	addi	x2,x2,16
  d4:	00008067          	jalr	x0,0(x1)

000000d8 <main>:
  d8:	ff010113          	addi	x2,x2,-16
  dc:	00112623          	sw	x1,12(x2)
  e0:	00000613          	addi	x12,x0,0
  e4:	00000593          	addi	x11,x0,0
  e8:	36400513          	addi	x10,x0,868
  ec:	00000097          	auipc	x1,0x0
  f0:	f40080e7          	jalr	x1,-192(x1) # 2c <uart_init>
  f4:	05500513          	addi	x10,x0,85
  f8:	00000097          	auipc	x1,0x0
  fc:	fa0080e7          	jalr	x1,-96(x1) # 98 <uart_putc>
 100:	04100513          	addi	x10,x0,65
 104:	00000097          	auipc	x1,0x0
 108:	f94080e7          	jalr	x1,-108(x1) # 98 <uart_putc>
 10c:	05200513          	addi	x10,x0,82
 110:	00000097          	auipc	x1,0x0
 114:	f88080e7          	jalr	x1,-120(x1) # 98 <uart_putc>
 118:	05400513          	addi	x10,x0,84
 11c:	00000097          	auipc	x1,0x0
 120:	f7c080e7          	jalr	x1,-132(x1) # 98 <uart_putc>
 124:	02000513          	addi	x10,x0,32
 128:	00000097          	auipc	x1,0x0
 12c:	f70080e7          	jalr	x1,-144(x1) # 98 <uart_putc>
 130:	04f00513          	addi	x10,x0,79
 134:	00000097          	auipc	x1,0x0
 138:	f64080e7          	jalr	x1,-156(x1) # 98 <uart_putc>
 13c:	04b00513          	addi	x10,x0,75
 140:	00000097          	auipc	x1,0x0
 144:	f58080e7          	jalr	x1,-168(x1) # 98 <uart_putc>
 148:	00d00513          	addi	x10,x0,13
 14c:	00000097          	auipc	x1,0x0
 150:	f4c080e7          	jalr	x1,-180(x1) # 98 <uart_putc>
 154:	00a00513          	addi	x10,x0,10
 158:	00000097          	auipc	x1,0x0
 15c:	f40080e7          	jalr	x1,-192(x1) # 98 <uart_putc>
 160:	05b00513          	addi	x10,x0,91
 164:	00000097          	auipc	x1,0x0
 168:	f34080e7          	jalr	x1,-204(x1) # 98 <uart_putc>
 16c:	05000513          	addi	x10,x0,80
 170:	00000097          	auipc	x1,0x0
 174:	f28080e7          	jalr	x1,-216(x1) # 98 <uart_putc>
 178:	04100513          	addi	x10,x0,65
 17c:	00000097          	auipc	x1,0x0
 180:	f1c080e7          	jalr	x1,-228(x1) # 98 <uart_putc>
 184:	05300513          	addi	x10,x0,83
 188:	00000097          	auipc	x1,0x0
 18c:	f10080e7          	jalr	x1,-240(x1) # 98 <uart_putc>
 190:	05300513          	addi	x10,x0,83
 194:	00000097          	auipc	x1,0x0
 198:	f04080e7          	jalr	x1,-252(x1) # 98 <uart_putc>
 19c:	05d00513          	addi	x10,x0,93
 1a0:	00000097          	auipc	x1,0x0
 1a4:	ef8080e7          	jalr	x1,-264(x1) # 98 <uart_putc>
 1a8:	02000513          	addi	x10,x0,32
 1ac:	00000097          	auipc	x1,0x0
 1b0:	eec080e7          	jalr	x1,-276(x1) # 98 <uart_putc>
 1b4:	07500513          	addi	x10,x0,117
 1b8:	00000097          	auipc	x1,0x0
 1bc:	ee0080e7          	jalr	x1,-288(x1) # 98 <uart_putc>
 1c0:	06100513          	addi	x10,x0,97
 1c4:	00000097          	auipc	x1,0x0
 1c8:	ed4080e7          	jalr	x1,-300(x1) # 98 <uart_putc>
 1cc:	07200513          	addi	x10,x0,114
 1d0:	00000097          	auipc	x1,0x0
 1d4:	ec8080e7          	jalr	x1,-312(x1) # 98 <uart_putc>
 1d8:	07400513          	addi	x10,x0,116
 1dc:	00000097          	auipc	x1,0x0
 1e0:	ebc080e7          	jalr	x1,-324(x1) # 98 <uart_putc>
 1e4:	05f00513          	addi	x10,x0,95
 1e8:	00000097          	auipc	x1,0x0
 1ec:	eb0080e7          	jalr	x1,-336(x1) # 98 <uart_putc>
 1f0:	07300513          	addi	x10,x0,115
 1f4:	00000097          	auipc	x1,0x0
 1f8:	ea4080e7          	jalr	x1,-348(x1) # 98 <uart_putc>
 1fc:	06900513          	addi	x10,x0,105
 200:	00000097          	auipc	x1,0x0
 204:	e98080e7          	jalr	x1,-360(x1) # 98 <uart_putc>
 208:	06d00513          	addi	x10,x0,109
 20c:	00000097          	auipc	x1,0x0
 210:	e8c080e7          	jalr	x1,-372(x1) # 98 <uart_putc>
 214:	07000513          	addi	x10,x0,112
 218:	00000097          	auipc	x1,0x0
 21c:	e80080e7          	jalr	x1,-384(x1) # 98 <uart_putc>
 220:	06c00513          	addi	x10,x0,108
 224:	00000097          	auipc	x1,0x0
 228:	e74080e7          	jalr	x1,-396(x1) # 98 <uart_putc>
 22c:	06500513          	addi	x10,x0,101
 230:	00000097          	auipc	x1,0x0
 234:	e68080e7          	jalr	x1,-408(x1) # 98 <uart_putc>
 238:	00d00513          	addi	x10,x0,13
 23c:	00000097          	auipc	x1,0x0
 240:	e5c080e7          	jalr	x1,-420(x1) # 98 <uart_putc>
 244:	00a00513          	addi	x10,x0,10
 248:	00000097          	auipc	x1,0x0
 24c:	e50080e7          	jalr	x1,-432(x1) # 98 <uart_putc>
 250:	0000006f          	jal	x0,250 <main+0x178>
