
test_integration.elf:     file format elf32-littleriscv


Disassembly of section .text:

00000000 <_start>:
       0:	10002117          	auipc	x2,0x10002
       4:	ff010113          	addi	x2,x2,-16 # 10001ff0 <__stack_top>
       8:	00000013          	addi	x0,x0,0
       c:	00000013          	addi	x0,x0,0
      10:	00000297          	auipc	x5,0x0
      14:	01828293          	addi	x5,x5,24 # 28 <trap_handler>
      18:	30529073          	csrrw	x0,mtvec,x5
      1c:	00001097          	auipc	x1,0x1
      20:	784080e7          	jalr	x1,1924(x1) # 17a0 <main>

00000024 <_halt>:
      24:	0000006f          	jal	x0,24 <_halt>

00000028 <trap_handler>:
      28:	0000006f          	jal	x0,28 <trap_handler>

0000002c <uart_init>:
      2c:	ff010113          	addi	x2,x2,-16
      30:	00050793          	addi	x15,x10,0
      34:	00058693          	addi	x13,x11,0
      38:	00060713          	addi	x14,x12,0
      3c:	00f11723          	sh	x15,14(x2)
      40:	00068793          	addi	x15,x13,0
      44:	00f106a3          	sb	x15,13(x2)
      48:	00070793          	addi	x15,x14,0
      4c:	00f10623          	sb	x15,12(x2)
      50:	500007b7          	lui	x15,0x50000
      54:	01078793          	addi	x15,x15,16 # 50000010 <__stack_top+0x3fffe020>
      58:	00e15703          	lhu	x14,14(x2)
      5c:	00e7a023          	sw	x14,0(x15)
      60:	0110000f          	fence	w,w
      64:	00c14783          	lbu	x15,12(x2)
      68:	00179793          	slli	x15,x15,0x1
      6c:	0027f693          	andi	x13,x15,2
      70:	00d14783          	lbu	x15,13(x2)
      74:	0017f713          	andi	x14,x15,1
      78:	500007b7          	lui	x15,0x50000
      7c:	00c78793          	addi	x15,x15,12 # 5000000c <__stack_top+0x3fffe01c>
      80:	00e6e733          	or	x14,x13,x14
      84:	00e7a023          	sw	x14,0(x15)
      88:	0110000f          	fence	w,w
      8c:	00000013          	addi	x0,x0,0
      90:	01010113          	addi	x2,x2,16
      94:	00008067          	jalr	x0,0(x1)

00000098 <uart_putc>:
      98:	ff010113          	addi	x2,x2,-16
      9c:	00050793          	addi	x15,x10,0
      a0:	00f107a3          	sb	x15,15(x2)
      a4:	00000013          	addi	x0,x0,0
      a8:	500007b7          	lui	x15,0x50000
      ac:	00878793          	addi	x15,x15,8 # 50000008 <__stack_top+0x3fffe018>
      b0:	0007a783          	lw	x15,0(x15)
      b4:	0027f793          	andi	x15,x15,2
      b8:	fe0798e3          	bne	x15,x0,a8 <uart_putc+0x10>
      bc:	500007b7          	lui	x15,0x50000
      c0:	00f14703          	lbu	x14,15(x2)
      c4:	00e7a023          	sw	x14,0(x15) # 50000000 <__stack_top+0x3fffe010>
      c8:	0110000f          	fence	w,w
      cc:	00000013          	addi	x0,x0,0
      d0:	01010113          	addi	x2,x2,16
      d4:	00008067          	jalr	x0,0(x1)

000000d8 <uart_puts>:
      d8:	fe010113          	addi	x2,x2,-32
      dc:	00112e23          	sw	x1,28(x2)
      e0:	00a12623          	sw	x10,12(x2)
      e4:	0200006f          	jal	x0,104 <uart_puts+0x2c>
      e8:	00c12783          	lw	x15,12(x2)
      ec:	00178713          	addi	x14,x15,1
      f0:	00e12623          	sw	x14,12(x2)
      f4:	0007c783          	lbu	x15,0(x15)
      f8:	00078513          	addi	x10,x15,0
      fc:	00000097          	auipc	x1,0x0
     100:	f9c080e7          	jalr	x1,-100(x1) # 98 <uart_putc>
     104:	00c12783          	lw	x15,12(x2)
     108:	0007c783          	lbu	x15,0(x15)
     10c:	fc079ee3          	bne	x15,x0,e8 <uart_puts+0x10>
     110:	00000013          	addi	x0,x0,0
     114:	500007b7          	lui	x15,0x50000
     118:	00878793          	addi	x15,x15,8 # 50000008 <__stack_top+0x3fffe018>
     11c:	0007a783          	lw	x15,0(x15)
     120:	0017f793          	andi	x15,x15,1
     124:	fe0788e3          	beq	x15,x0,114 <uart_puts+0x3c>
     128:	00000013          	addi	x0,x0,0
     12c:	00000013          	addi	x0,x0,0
     130:	01c12083          	lw	x1,28(x2)
     134:	02010113          	addi	x2,x2,32
     138:	00008067          	jalr	x0,0(x1)

0000013c <uart_tx_irq_enable>:
     13c:	500007b7          	lui	x15,0x50000
     140:	00c78793          	addi	x15,x15,12 # 5000000c <__stack_top+0x3fffe01c>
     144:	0007a703          	lw	x14,0(x15)
     148:	500007b7          	lui	x15,0x50000
     14c:	00c78793          	addi	x15,x15,12 # 5000000c <__stack_top+0x3fffe01c>
     150:	00176713          	ori	x14,x14,1
     154:	00e7a023          	sw	x14,0(x15)
     158:	0110000f          	fence	w,w
     15c:	00000013          	addi	x0,x0,0
     160:	00008067          	jalr	x0,0(x1)

00000164 <uart_irq_clear>:
     164:	500007b7          	lui	x15,0x50000
     168:	01478793          	addi	x15,x15,20 # 50000014 <__stack_top+0x3fffe024>
     16c:	00300713          	addi	x14,x0,3
     170:	00e7a023          	sw	x14,0(x15)
     174:	0110000f          	fence	w,w
     178:	00000013          	addi	x0,x0,0
     17c:	00008067          	jalr	x0,0(x1)

00000180 <uart_irq_status>:
     180:	500007b7          	lui	x15,0x50000
     184:	01478793          	addi	x15,x15,20 # 50000014 <__stack_top+0x3fffe024>
     188:	0007a783          	lw	x15,0(x15)
     18c:	00078513          	addi	x10,x15,0
     190:	00008067          	jalr	x0,0(x1)

00000194 <uart_puthex8>:
     194:	fd010113          	addi	x2,x2,-48
     198:	02112623          	sw	x1,44(x2)
     19c:	00050793          	addi	x15,x10,0
     1a0:	00f107a3          	sb	x15,15(x2)
     1a4:	100007b7          	lui	x15,0x10000
     1a8:	00078793          	addi	x15,x15,0 # 10000000 <__data_start>
     1ac:	00f12e23          	sw	x15,28(x2)
     1b0:	00f14783          	lbu	x15,15(x2)
     1b4:	0047d793          	srli	x15,x15,0x4
     1b8:	0ff7f793          	andi	x15,x15,255
     1bc:	00f7f793          	andi	x15,x15,15
     1c0:	01c12703          	lw	x14,28(x2)
     1c4:	00f707b3          	add	x15,x14,x15
     1c8:	0007c783          	lbu	x15,0(x15)
     1cc:	00078513          	addi	x10,x15,0
     1d0:	00000097          	auipc	x1,0x0
     1d4:	ec8080e7          	jalr	x1,-312(x1) # 98 <uart_putc>
     1d8:	00f14783          	lbu	x15,15(x2)
     1dc:	00f7f793          	andi	x15,x15,15
     1e0:	01c12703          	lw	x14,28(x2)
     1e4:	00f707b3          	add	x15,x14,x15
     1e8:	0007c783          	lbu	x15,0(x15)
     1ec:	00078513          	addi	x10,x15,0
     1f0:	00000097          	auipc	x1,0x0
     1f4:	ea8080e7          	jalr	x1,-344(x1) # 98 <uart_putc>
     1f8:	00000013          	addi	x0,x0,0
     1fc:	02c12083          	lw	x1,44(x2)
     200:	03010113          	addi	x2,x2,48
     204:	00008067          	jalr	x0,0(x1)

00000208 <uart_puthex32>:
     208:	fe010113          	addi	x2,x2,-32
     20c:	00112e23          	sw	x1,28(x2)
     210:	00a12623          	sw	x10,12(x2)
     214:	00c12783          	lw	x15,12(x2)
     218:	0187d793          	srli	x15,x15,0x18
     21c:	0ff7f793          	andi	x15,x15,255
     220:	00078513          	addi	x10,x15,0
     224:	00000097          	auipc	x1,0x0
     228:	f70080e7          	jalr	x1,-144(x1) # 194 <uart_puthex8>
     22c:	00c12783          	lw	x15,12(x2)
     230:	0107d793          	srli	x15,x15,0x10
     234:	0ff7f793          	andi	x15,x15,255
     238:	00078513          	addi	x10,x15,0
     23c:	00000097          	auipc	x1,0x0
     240:	f58080e7          	jalr	x1,-168(x1) # 194 <uart_puthex8>
     244:	00c12783          	lw	x15,12(x2)
     248:	0087d793          	srli	x15,x15,0x8
     24c:	0ff7f793          	andi	x15,x15,255
     250:	00078513          	addi	x10,x15,0
     254:	00000097          	auipc	x1,0x0
     258:	f40080e7          	jalr	x1,-192(x1) # 194 <uart_puthex8>
     25c:	00c12783          	lw	x15,12(x2)
     260:	0ff7f793          	andi	x15,x15,255
     264:	00078513          	addi	x10,x15,0
     268:	00000097          	auipc	x1,0x0
     26c:	f2c080e7          	jalr	x1,-212(x1) # 194 <uart_puthex8>
     270:	00000013          	addi	x0,x0,0
     274:	01c12083          	lw	x1,28(x2)
     278:	02010113          	addi	x2,x2,32
     27c:	00008067          	jalr	x0,0(x1)

00000280 <run_uart_test>:
     280:	fe010113          	addi	x2,x2,-32
     284:	00112e23          	sw	x1,28(x2)
     288:	00000613          	addi	x12,x0,0
     28c:	00000593          	addi	x11,x0,0
     290:	36400513          	addi	x10,x0,868
     294:	00000097          	auipc	x1,0x0
     298:	d98080e7          	jalr	x1,-616(x1) # 2c <uart_init>
     29c:	100007b7          	lui	x15,0x10000
     2a0:	01478513          	addi	x10,x15,20 # 10000014 <__data_start+0x14>
     2a4:	00000097          	auipc	x1,0x0
     2a8:	e34080e7          	jalr	x1,-460(x1) # d8 <uart_puts>
     2ac:	00000097          	auipc	x1,0x0
     2b0:	eb8080e7          	jalr	x1,-328(x1) # 164 <uart_irq_clear>
     2b4:	00000097          	auipc	x1,0x0
     2b8:	e88080e7          	jalr	x1,-376(x1) # 13c <uart_tx_irq_enable>
     2bc:	04100513          	addi	x10,x0,65
     2c0:	00000097          	auipc	x1,0x0
     2c4:	dd8080e7          	jalr	x1,-552(x1) # 98 <uart_putc>
     2c8:	000407b7          	lui	x15,0x40
     2cc:	fff78793          	addi	x15,x15,-1 # 3ffff <__data_load+0x3e6db>
     2d0:	00f12623          	sw	x15,12(x2)
     2d4:	00000097          	auipc	x1,0x0
     2d8:	eac080e7          	jalr	x1,-340(x1) # 180 <uart_irq_status>
     2dc:	00a12423          	sw	x10,8(x2)
     2e0:	00c12783          	lw	x15,12(x2)
     2e4:	fff78793          	addi	x15,x15,-1
     2e8:	00f12623          	sw	x15,12(x2)
     2ec:	00c12783          	lw	x15,12(x2)
     2f0:	00079663          	bne	x15,x0,2fc <run_uart_test+0x7c>
     2f4:	fff00793          	addi	x15,x0,-1
     2f8:	0380006f          	jal	x0,330 <run_uart_test+0xb0>
     2fc:	00812783          	lw	x15,8(x2)
     300:	0017f793          	andi	x15,x15,1
     304:	fc0788e3          	beq	x15,x0,2d4 <run_uart_test+0x54>
     308:	00000097          	auipc	x1,0x0
     30c:	e5c080e7          	jalr	x1,-420(x1) # 164 <uart_irq_clear>
     310:	00000097          	auipc	x1,0x0
     314:	e70080e7          	jalr	x1,-400(x1) # 180 <uart_irq_status>
     318:	00050793          	addi	x15,x10,0
     31c:	0017f793          	andi	x15,x15,1
     320:	00078663          	beq	x15,x0,32c <run_uart_test+0xac>
     324:	ffe00793          	addi	x15,x0,-2
     328:	0080006f          	jal	x0,330 <run_uart_test+0xb0>
     32c:	00000793          	addi	x15,x0,0
     330:	00078513          	addi	x10,x15,0
     334:	01c12083          	lw	x1,28(x2)
     338:	02010113          	addi	x2,x2,32
     33c:	00008067          	jalr	x0,0(x1)

00000340 <gpio_set_dir>:
     340:	ff010113          	addi	x2,x2,-16
     344:	00a12623          	sw	x10,12(x2)
     348:	500107b7          	lui	x15,0x50010
     34c:	00c12703          	lw	x14,12(x2)
     350:	00e7a023          	sw	x14,0(x15) # 50010000 <__stack_top+0x4000e010>
     354:	0110000f          	fence	w,w
     358:	00000013          	addi	x0,x0,0
     35c:	01010113          	addi	x2,x2,16
     360:	00008067          	jalr	x0,0(x1)

00000364 <gpio_write>:
     364:	fe010113          	addi	x2,x2,-32
     368:	00a12623          	sw	x10,12(x2)
     36c:	00b12423          	sw	x11,8(x2)
     370:	500107b7          	lui	x15,0x50010
     374:	00478793          	addi	x15,x15,4 # 50010004 <__stack_top+0x4000e014>
     378:	0007a783          	lw	x15,0(x15)
     37c:	00f12e23          	sw	x15,28(x2)
     380:	00812783          	lw	x15,8(x2)
     384:	fff7c713          	xori	x14,x15,-1
     388:	01c12783          	lw	x15,28(x2)
     38c:	00f776b3          	and	x13,x14,x15
     390:	00c12703          	lw	x14,12(x2)
     394:	00812783          	lw	x15,8(x2)
     398:	00f77733          	and	x14,x14,x15
     39c:	500107b7          	lui	x15,0x50010
     3a0:	00478793          	addi	x15,x15,4 # 50010004 <__stack_top+0x4000e014>
     3a4:	00e6e733          	or	x14,x13,x14
     3a8:	00e7a023          	sw	x14,0(x15)
     3ac:	0110000f          	fence	w,w
     3b0:	00000013          	addi	x0,x0,0
     3b4:	02010113          	addi	x2,x2,32
     3b8:	00008067          	jalr	x0,0(x1)

000003bc <gpio_read>:
     3bc:	500107b7          	lui	x15,0x50010
     3c0:	00878793          	addi	x15,x15,8 # 50010008 <__stack_top+0x4000e018>
     3c4:	0007a783          	lw	x15,0(x15)
     3c8:	00078513          	addi	x10,x15,0
     3cc:	00008067          	jalr	x0,0(x1)

000003d0 <gpio_irq_enable>:
     3d0:	ff010113          	addi	x2,x2,-16
     3d4:	00a12623          	sw	x10,12(x2)
     3d8:	00058793          	addi	x15,x11,0
     3dc:	00060713          	addi	x14,x12,0
     3e0:	00f105a3          	sb	x15,11(x2)
     3e4:	00070793          	addi	x15,x14,0
     3e8:	00f10523          	sb	x15,10(x2)
     3ec:	00b14783          	lbu	x15,11(x2)
     3f0:	02078463          	beq	x15,x0,418 <gpio_irq_enable+0x48>
     3f4:	500107b7          	lui	x15,0x50010
     3f8:	01478793          	addi	x15,x15,20 # 50010014 <__stack_top+0x4000e024>
     3fc:	0007a683          	lw	x13,0(x15)
     400:	500107b7          	lui	x15,0x50010
     404:	01478793          	addi	x15,x15,20 # 50010014 <__stack_top+0x4000e024>
     408:	00c12703          	lw	x14,12(x2)
     40c:	00e6e733          	or	x14,x13,x14
     410:	00e7a023          	sw	x14,0(x15)
     414:	0280006f          	jal	x0,43c <gpio_irq_enable+0x6c>
     418:	500107b7          	lui	x15,0x50010
     41c:	01478793          	addi	x15,x15,20 # 50010014 <__stack_top+0x4000e024>
     420:	0007a683          	lw	x13,0(x15)
     424:	00c12783          	lw	x15,12(x2)
     428:	fff7c713          	xori	x14,x15,-1
     42c:	500107b7          	lui	x15,0x50010
     430:	01478793          	addi	x15,x15,20 # 50010014 <__stack_top+0x4000e024>
     434:	00e6f733          	and	x14,x13,x14
     438:	00e7a023          	sw	x14,0(x15)
     43c:	00a14783          	lbu	x15,10(x2)
     440:	02078463          	beq	x15,x0,468 <gpio_irq_enable+0x98>
     444:	500107b7          	lui	x15,0x50010
     448:	01878793          	addi	x15,x15,24 # 50010018 <__stack_top+0x4000e028>
     44c:	0007a683          	lw	x13,0(x15)
     450:	500107b7          	lui	x15,0x50010
     454:	01878793          	addi	x15,x15,24 # 50010018 <__stack_top+0x4000e028>
     458:	00c12703          	lw	x14,12(x2)
     45c:	00e6e733          	or	x14,x13,x14
     460:	00e7a023          	sw	x14,0(x15)
     464:	0280006f          	jal	x0,48c <gpio_irq_enable+0xbc>
     468:	500107b7          	lui	x15,0x50010
     46c:	01878793          	addi	x15,x15,24 # 50010018 <__stack_top+0x4000e028>
     470:	0007a683          	lw	x13,0(x15)
     474:	00c12783          	lw	x15,12(x2)
     478:	fff7c713          	xori	x14,x15,-1
     47c:	500107b7          	lui	x15,0x50010
     480:	01878793          	addi	x15,x15,24 # 50010018 <__stack_top+0x4000e028>
     484:	00e6f733          	and	x14,x13,x14
     488:	00e7a023          	sw	x14,0(x15)
     48c:	500107b7          	lui	x15,0x50010
     490:	00c78793          	addi	x15,x15,12 # 5001000c <__stack_top+0x4000e01c>
     494:	0007a683          	lw	x13,0(x15)
     498:	500107b7          	lui	x15,0x50010
     49c:	00c78793          	addi	x15,x15,12 # 5001000c <__stack_top+0x4000e01c>
     4a0:	00c12703          	lw	x14,12(x2)
     4a4:	00e6e733          	or	x14,x13,x14
     4a8:	00e7a023          	sw	x14,0(x15)
     4ac:	0110000f          	fence	w,w
     4b0:	00000013          	addi	x0,x0,0
     4b4:	01010113          	addi	x2,x2,16
     4b8:	00008067          	jalr	x0,0(x1)

000004bc <gpio_irq_clear>:
     4bc:	ff010113          	addi	x2,x2,-16
     4c0:	00a12623          	sw	x10,12(x2)
     4c4:	500107b7          	lui	x15,0x50010
     4c8:	01078793          	addi	x15,x15,16 # 50010010 <__stack_top+0x4000e020>
     4cc:	00c12703          	lw	x14,12(x2)
     4d0:	00e7a023          	sw	x14,0(x15)
     4d4:	0110000f          	fence	w,w
     4d8:	00000013          	addi	x0,x0,0
     4dc:	01010113          	addi	x2,x2,16
     4e0:	00008067          	jalr	x0,0(x1)

000004e4 <gpio_irq_status>:
     4e4:	500107b7          	lui	x15,0x50010
     4e8:	01078793          	addi	x15,x15,16 # 50010010 <__stack_top+0x4000e020>
     4ec:	0007a783          	lw	x15,0(x15)
     4f0:	00078513          	addi	x10,x15,0
     4f4:	00008067          	jalr	x0,0(x1)

000004f8 <plic_set_priority>:
     4f8:	ff010113          	addi	x2,x2,-16
     4fc:	00a12623          	sw	x10,12(x2)
     500:	00b12423          	sw	x11,8(x2)
     504:	00c12703          	lw	x14,12(x2)
     508:	140107b7          	lui	x15,0x14010
     50c:	00f707b3          	add	x15,x14,x15
     510:	00279793          	slli	x15,x15,0x2
     514:	00078713          	addi	x14,x15,0 # 14010000 <__stack_top+0x400e010>
     518:	00812783          	lw	x15,8(x2)
     51c:	00f72023          	sw	x15,0(x14)
     520:	0110000f          	fence	w,w
     524:	00000013          	addi	x0,x0,0
     528:	01010113          	addi	x2,x2,16
     52c:	00008067          	jalr	x0,0(x1)

00000530 <plic_enable>:
     530:	ff010113          	addi	x2,x2,-16
     534:	00a12623          	sw	x10,12(x2)
     538:	500407b7          	lui	x15,0x50040
     53c:	10078793          	addi	x15,x15,256 # 50040100 <__stack_top+0x4003e110>
     540:	0007a683          	lw	x13,0(x15)
     544:	00c12783          	lw	x15,12(x2)
     548:	00100713          	addi	x14,x0,1
     54c:	00f71733          	sll	x14,x14,x15
     550:	500407b7          	lui	x15,0x50040
     554:	10078793          	addi	x15,x15,256 # 50040100 <__stack_top+0x4003e110>
     558:	00e6e733          	or	x14,x13,x14
     55c:	00e7a023          	sw	x14,0(x15)
     560:	0110000f          	fence	w,w
     564:	00000013          	addi	x0,x0,0
     568:	01010113          	addi	x2,x2,16
     56c:	00008067          	jalr	x0,0(x1)

00000570 <plic_disable>:
     570:	ff010113          	addi	x2,x2,-16
     574:	00a12623          	sw	x10,12(x2)
     578:	500407b7          	lui	x15,0x50040
     57c:	10078793          	addi	x15,x15,256 # 50040100 <__stack_top+0x4003e110>
     580:	0007a683          	lw	x13,0(x15)
     584:	00c12783          	lw	x15,12(x2)
     588:	00100713          	addi	x14,x0,1
     58c:	00f717b3          	sll	x15,x14,x15
     590:	fff7c713          	xori	x14,x15,-1
     594:	500407b7          	lui	x15,0x50040
     598:	10078793          	addi	x15,x15,256 # 50040100 <__stack_top+0x4003e110>
     59c:	00e6f733          	and	x14,x13,x14
     5a0:	00e7a023          	sw	x14,0(x15)
     5a4:	0110000f          	fence	w,w
     5a8:	00000013          	addi	x0,x0,0
     5ac:	01010113          	addi	x2,x2,16
     5b0:	00008067          	jalr	x0,0(x1)

000005b4 <plic_set_threshold>:
     5b4:	ff010113          	addi	x2,x2,-16
     5b8:	00a12623          	sw	x10,12(x2)
     5bc:	500407b7          	lui	x15,0x50040
     5c0:	20078793          	addi	x15,x15,512 # 50040200 <__stack_top+0x4003e210>
     5c4:	00c12703          	lw	x14,12(x2)
     5c8:	00e7a023          	sw	x14,0(x15)
     5cc:	0110000f          	fence	w,w
     5d0:	00000013          	addi	x0,x0,0
     5d4:	01010113          	addi	x2,x2,16
     5d8:	00008067          	jalr	x0,0(x1)

000005dc <plic_claim>:
     5dc:	500407b7          	lui	x15,0x50040
     5e0:	20478793          	addi	x15,x15,516 # 50040204 <__stack_top+0x4003e214>
     5e4:	0007a783          	lw	x15,0(x15)
     5e8:	00078513          	addi	x10,x15,0
     5ec:	00008067          	jalr	x0,0(x1)

000005f0 <plic_complete>:
     5f0:	ff010113          	addi	x2,x2,-16
     5f4:	00a12623          	sw	x10,12(x2)
     5f8:	500407b7          	lui	x15,0x50040
     5fc:	20478793          	addi	x15,x15,516 # 50040204 <__stack_top+0x4003e214>
     600:	00c12703          	lw	x14,12(x2)
     604:	00e7a023          	sw	x14,0(x15)
     608:	0110000f          	fence	w,w
     60c:	00000013          	addi	x0,x0,0
     610:	01010113          	addi	x2,x2,16
     614:	00008067          	jalr	x0,0(x1)

00000618 <irq_set_mtvec>:
     618:	ff010113          	addi	x2,x2,-16
     61c:	00a12623          	sw	x10,12(x2)
     620:	00c12783          	lw	x15,12(x2)
     624:	30579073          	csrrw	x0,mtvec,x15
     628:	00000013          	addi	x0,x0,0
     62c:	01010113          	addi	x2,x2,16
     630:	00008067          	jalr	x0,0(x1)

00000634 <irq_enable_global>:
     634:	30046073          	csrrsi	x0,mstatus,8
     638:	00000013          	addi	x0,x0,0
     63c:	00008067          	jalr	x0,0(x1)

00000640 <irq_disable_global>:
     640:	30047073          	csrrci	x0,mstatus,8
     644:	00000013          	addi	x0,x0,0
     648:	00008067          	jalr	x0,0(x1)

0000064c <irq_enable_software>:
     64c:	00800293          	addi	x5,x0,8
     650:	3042a073          	csrrs	x0,mie,x5
     654:	00000013          	addi	x0,x0,0
     658:	00008067          	jalr	x0,0(x1)

0000065c <irq_enable_timer>:
     65c:	08000293          	addi	x5,x0,128
     660:	3042a073          	csrrs	x0,mie,x5
     664:	00000013          	addi	x0,x0,0
     668:	00008067          	jalr	x0,0(x1)

0000066c <irq_enable_external>:
     66c:	000012b7          	lui	x5,0x1
     670:	80028293          	addi	x5,x5,-2048 # 800 <run_gpio_test+0x50>
     674:	3042a073          	csrrs	x0,mie,x5
     678:	00000013          	addi	x0,x0,0
     67c:	00008067          	jalr	x0,0(x1)

00000680 <irq_disable_software>:
     680:	00800293          	addi	x5,x0,8
     684:	3042b073          	csrrc	x0,mie,x5
     688:	00000013          	addi	x0,x0,0
     68c:	00008067          	jalr	x0,0(x1)

00000690 <irq_disable_timer>:
     690:	08000293          	addi	x5,x0,128
     694:	3042b073          	csrrc	x0,mie,x5
     698:	00000013          	addi	x0,x0,0
     69c:	00008067          	jalr	x0,0(x1)

000006a0 <irq_mcause>:
     6a0:	ff010113          	addi	x2,x2,-16
     6a4:	342027f3          	csrrs	x15,mcause,x0
     6a8:	00f12623          	sw	x15,12(x2)
     6ac:	00c12783          	lw	x15,12(x2)
     6b0:	00078513          	addi	x10,x15,0
     6b4:	01010113          	addi	x2,x2,16
     6b8:	00008067          	jalr	x0,0(x1)

000006bc <gpio_isr>:
     6bc:	fb010113          	addi	x2,x2,-80
     6c0:	04112623          	sw	x1,76(x2)
     6c4:	04512423          	sw	x5,72(x2)
     6c8:	04612223          	sw	x6,68(x2)
     6cc:	04712023          	sw	x7,64(x2)
     6d0:	02a12e23          	sw	x10,60(x2)
     6d4:	02b12c23          	sw	x11,56(x2)
     6d8:	02c12a23          	sw	x12,52(x2)
     6dc:	02d12823          	sw	x13,48(x2)
     6e0:	02e12623          	sw	x14,44(x2)
     6e4:	02f12423          	sw	x15,40(x2)
     6e8:	03012223          	sw	x16,36(x2)
     6ec:	03112023          	sw	x17,32(x2)
     6f0:	01c12e23          	sw	x28,28(x2)
     6f4:	01d12c23          	sw	x29,24(x2)
     6f8:	01e12a23          	sw	x30,20(x2)
     6fc:	01f12823          	sw	x31,16(x2)
     700:	00000097          	auipc	x1,0x0
     704:	fa0080e7          	jalr	x1,-96(x1) # 6a0 <irq_mcause>
     708:	00a12623          	sw	x10,12(x2)
     70c:	00c12783          	lw	x15,12(x2)
     710:	0ff7f713          	andi	x14,x15,255
     714:	00b00793          	addi	x15,x0,11
     718:	04f71663          	bne	x14,x15,764 <gpio_isr+0xa8>
     71c:	00000097          	auipc	x1,0x0
     720:	ec0080e7          	jalr	x1,-320(x1) # 5dc <plic_claim>
     724:	00a12423          	sw	x10,8(x2)
     728:	00812703          	lw	x14,8(x2)
     72c:	00400793          	addi	x15,x0,4
     730:	02f71463          	bne	x14,x15,758 <gpio_isr+0x9c>
     734:	00000097          	auipc	x1,0x0
     738:	db0080e7          	jalr	x1,-592(x1) # 4e4 <gpio_irq_status>
     73c:	00050793          	addi	x15,x10,0
     740:	00078513          	addi	x10,x15,0
     744:	00000097          	auipc	x1,0x0
     748:	d78080e7          	jalr	x1,-648(x1) # 4bc <gpio_irq_clear>
     74c:	100007b7          	lui	x15,0x10000
     750:	00100713          	addi	x14,x0,1
     754:	0ae7ac23          	sw	x14,184(x15) # 100000b8 <gpio_irq_flag>
     758:	00812503          	lw	x10,8(x2)
     75c:	00000097          	auipc	x1,0x0
     760:	e94080e7          	jalr	x1,-364(x1) # 5f0 <plic_complete>
     764:	00000013          	addi	x0,x0,0
     768:	04c12083          	lw	x1,76(x2)
     76c:	04812283          	lw	x5,72(x2)
     770:	04412303          	lw	x6,68(x2)
     774:	04012383          	lw	x7,64(x2)
     778:	03c12503          	lw	x10,60(x2)
     77c:	03812583          	lw	x11,56(x2)
     780:	03412603          	lw	x12,52(x2)
     784:	03012683          	lw	x13,48(x2)
     788:	02c12703          	lw	x14,44(x2)
     78c:	02812783          	lw	x15,40(x2)
     790:	02412803          	lw	x16,36(x2)
     794:	02012883          	lw	x17,32(x2)
     798:	01c12e03          	lw	x28,28(x2)
     79c:	01812e83          	lw	x29,24(x2)
     7a0:	01412f03          	lw	x30,20(x2)
     7a4:	01012f83          	lw	x31,16(x2)
     7a8:	05010113          	addi	x2,x2,80
     7ac:	30200073          	mret

000007b0 <run_gpio_test>:
     7b0:	fe010113          	addi	x2,x2,-32
     7b4:	00112e23          	sw	x1,28(x2)
     7b8:	00000613          	addi	x12,x0,0
     7bc:	00000593          	addi	x11,x0,0
     7c0:	36400513          	addi	x10,x0,868
     7c4:	00000097          	auipc	x1,0x0
     7c8:	868080e7          	jalr	x1,-1944(x1) # 2c <uart_init>
     7cc:	0ff00513          	addi	x10,x0,255
     7d0:	00000097          	auipc	x1,0x0
     7d4:	b70080e7          	jalr	x1,-1168(x1) # 340 <gpio_set_dir>
     7d8:	0ff00593          	addi	x11,x0,255
     7dc:	0aa00513          	addi	x10,x0,170
     7e0:	00000097          	auipc	x1,0x0
     7e4:	b84080e7          	jalr	x1,-1148(x1) # 364 <gpio_write>
     7e8:	00100613          	addi	x12,x0,1
     7ec:	00100593          	addi	x11,x0,1
     7f0:	10000513          	addi	x10,x0,256
     7f4:	00000097          	auipc	x1,0x0
     7f8:	bdc080e7          	jalr	x1,-1060(x1) # 3d0 <gpio_irq_enable>
     7fc:	00000513          	addi	x10,x0,0
     800:	00000097          	auipc	x1,0x0
     804:	db4080e7          	jalr	x1,-588(x1) # 5b4 <plic_set_threshold>
     808:	00100593          	addi	x11,x0,1
     80c:	00400513          	addi	x10,x0,4
     810:	00000097          	auipc	x1,0x0
     814:	ce8080e7          	jalr	x1,-792(x1) # 4f8 <plic_set_priority>
     818:	00400513          	addi	x10,x0,4
     81c:	00000097          	auipc	x1,0x0
     820:	d14080e7          	jalr	x1,-748(x1) # 530 <plic_enable>
     824:	000007b7          	lui	x15,0x0
     828:	6bc78513          	addi	x10,x15,1724 # 6bc <gpio_isr>
     82c:	00000097          	auipc	x1,0x0
     830:	dec080e7          	jalr	x1,-532(x1) # 618 <irq_set_mtvec>
     834:	00000097          	auipc	x1,0x0
     838:	e38080e7          	jalr	x1,-456(x1) # 66c <irq_enable_external>
     83c:	00000097          	auipc	x1,0x0
     840:	df8080e7          	jalr	x1,-520(x1) # 634 <irq_enable_global>
     844:	000807b7          	lui	x15,0x80
     848:	fff78793          	addi	x15,x15,-1 # 7ffff <__data_load+0x7e6db>
     84c:	00f12623          	sw	x15,12(x2)
     850:	0200006f          	jal	x0,870 <run_gpio_test+0xc0>
     854:	00c12783          	lw	x15,12(x2)
     858:	fff78793          	addi	x15,x15,-1
     85c:	00f12623          	sw	x15,12(x2)
     860:	00c12783          	lw	x15,12(x2)
     864:	00079663          	bne	x15,x0,870 <run_gpio_test+0xc0>
     868:	fff00793          	addi	x15,x0,-1
     86c:	0240006f          	jal	x0,890 <run_gpio_test+0xe0>
     870:	100007b7          	lui	x15,0x10000
     874:	0b87a783          	lw	x15,184(x15) # 100000b8 <gpio_irq_flag>
     878:	fc078ee3          	beq	x15,x0,854 <run_gpio_test+0xa4>
     87c:	00000097          	auipc	x1,0x0
     880:	dc4080e7          	jalr	x1,-572(x1) # 640 <irq_disable_global>
     884:	00000097          	auipc	x1,0x0
     888:	b38080e7          	jalr	x1,-1224(x1) # 3bc <gpio_read>
     88c:	00000793          	addi	x15,x0,0
     890:	00078513          	addi	x10,x15,0
     894:	01c12083          	lw	x1,28(x2)
     898:	02010113          	addi	x2,x2,32
     89c:	00008067          	jalr	x0,0(x1)

000008a0 <timer0_oneshot>:
     8a0:	ff010113          	addi	x2,x2,-16
     8a4:	00a12623          	sw	x10,12(x2)
     8a8:	500307b7          	lui	x15,0x50030
     8ac:	0007a023          	sw	x0,0(x15) # 50030000 <__stack_top+0x4002e010>
     8b0:	500307b7          	lui	x15,0x50030
     8b4:	00478793          	addi	x15,x15,4 # 50030004 <__stack_top+0x4002e014>
     8b8:	00c12703          	lw	x14,12(x2)
     8bc:	00e7a023          	sw	x14,0(x15)
     8c0:	0110000f          	fence	w,w
     8c4:	500307b7          	lui	x15,0x50030
     8c8:	00100713          	addi	x14,x0,1
     8cc:	00e7a023          	sw	x14,0(x15) # 50030000 <__stack_top+0x4002e010>
     8d0:	0110000f          	fence	w,w
     8d4:	00000013          	addi	x0,x0,0
     8d8:	01010113          	addi	x2,x2,16
     8dc:	00008067          	jalr	x0,0(x1)

000008e0 <timer0_autoreload>:
     8e0:	ff010113          	addi	x2,x2,-16
     8e4:	00a12623          	sw	x10,12(x2)
     8e8:	00058793          	addi	x15,x11,0
     8ec:	00f105a3          	sb	x15,11(x2)
     8f0:	500307b7          	lui	x15,0x50030
     8f4:	0007a023          	sw	x0,0(x15) # 50030000 <__stack_top+0x4002e010>
     8f8:	500307b7          	lui	x15,0x50030
     8fc:	00478793          	addi	x15,x15,4 # 50030004 <__stack_top+0x4002e014>
     900:	00c12703          	lw	x14,12(x2)
     904:	00e7a023          	sw	x14,0(x15)
     908:	0110000f          	fence	w,w
     90c:	00b14783          	lbu	x15,11(x2)
     910:	00078663          	beq	x15,x0,91c <timer0_autoreload+0x3c>
     914:	00700793          	addi	x15,x0,7
     918:	0080006f          	jal	x0,920 <timer0_autoreload+0x40>
     91c:	00300793          	addi	x15,x0,3
     920:	50030737          	lui	x14,0x50030
     924:	00f72023          	sw	x15,0(x14) # 50030000 <__stack_top+0x4002e010>
     928:	0110000f          	fence	w,w
     92c:	00000013          	addi	x0,x0,0
     930:	01010113          	addi	x2,x2,16
     934:	00008067          	jalr	x0,0(x1)

00000938 <timer0_wait_timeout>:
     938:	ff010113          	addi	x2,x2,-16
     93c:	00a12623          	sw	x10,12(x2)
     940:	0200006f          	jal	x0,960 <timer0_wait_timeout+0x28>
     944:	500307b7          	lui	x15,0x50030
     948:	00c78793          	addi	x15,x15,12 # 5003000c <__stack_top+0x4002e01c>
     94c:	0007a783          	lw	x15,0(x15)
     950:	0017f793          	andi	x15,x15,1
     954:	00078663          	beq	x15,x0,960 <timer0_wait_timeout+0x28>
     958:	00000793          	addi	x15,x0,0
     95c:	0180006f          	jal	x0,974 <timer0_wait_timeout+0x3c>
     960:	00c12783          	lw	x15,12(x2)
     964:	fff78713          	addi	x14,x15,-1
     968:	00e12623          	sw	x14,12(x2)
     96c:	fc079ce3          	bne	x15,x0,944 <timer0_wait_timeout+0xc>
     970:	fff00793          	addi	x15,x0,-1
     974:	00078513          	addi	x10,x15,0
     978:	01010113          	addi	x2,x2,16
     97c:	00008067          	jalr	x0,0(x1)

00000980 <timer0_clear>:
     980:	500307b7          	lui	x15,0x50030
     984:	00c78793          	addi	x15,x15,12 # 5003000c <__stack_top+0x4002e01c>
     988:	00100713          	addi	x14,x0,1
     98c:	00e7a023          	sw	x14,0(x15)
     990:	0110000f          	fence	w,w
     994:	00000013          	addi	x0,x0,0
     998:	00008067          	jalr	x0,0(x1)

0000099c <timer0_stop>:
     99c:	500307b7          	lui	x15,0x50030
     9a0:	0007a023          	sw	x0,0(x15) # 50030000 <__stack_top+0x4002e010>
     9a4:	0110000f          	fence	w,w
     9a8:	00000013          	addi	x0,x0,0
     9ac:	00008067          	jalr	x0,0(x1)

000009b0 <wdt_enable>:
     9b0:	ff010113          	addi	x2,x2,-16
     9b4:	00a12623          	sw	x10,12(x2)
     9b8:	500307b7          	lui	x15,0x50030
     9bc:	02078793          	addi	x15,x15,32 # 50030020 <__stack_top+0x4002e030>
     9c0:	0007a023          	sw	x0,0(x15)
     9c4:	500307b7          	lui	x15,0x50030
     9c8:	02478793          	addi	x15,x15,36 # 50030024 <__stack_top+0x4002e034>
     9cc:	00c12703          	lw	x14,12(x2)
     9d0:	00e7a023          	sw	x14,0(x15)
     9d4:	0110000f          	fence	w,w
     9d8:	500307b7          	lui	x15,0x50030
     9dc:	02078793          	addi	x15,x15,32 # 50030020 <__stack_top+0x4002e030>
     9e0:	00100713          	addi	x14,x0,1
     9e4:	00e7a023          	sw	x14,0(x15)
     9e8:	0110000f          	fence	w,w
     9ec:	00000013          	addi	x0,x0,0
     9f0:	01010113          	addi	x2,x2,16
     9f4:	00008067          	jalr	x0,0(x1)

000009f8 <wdt_feed>:
     9f8:	500307b7          	lui	x15,0x50030
     9fc:	02878793          	addi	x15,x15,40 # 50030028 <__stack_top+0x4002e038>
     a00:	deae0737          	lui	x14,0xdeae0
     a04:	eed70713          	addi	x14,x14,-275 # deadfeed <__stack_top+0xceaddefd>
     a08:	00e7a023          	sw	x14,0(x15)
     a0c:	0110000f          	fence	w,w
     a10:	00000013          	addi	x0,x0,0
     a14:	00008067          	jalr	x0,0(x1)

00000a18 <wdt_disable>:
     a18:	500307b7          	lui	x15,0x50030
     a1c:	02078793          	addi	x15,x15,32 # 50030020 <__stack_top+0x4002e030>
     a20:	0007a023          	sw	x0,0(x15)
     a24:	0110000f          	fence	w,w
     a28:	00000013          	addi	x0,x0,0
     a2c:	00008067          	jalr	x0,0(x1)

00000a30 <wdt_expired>:
     a30:	500307b7          	lui	x15,0x50030
     a34:	02c78793          	addi	x15,x15,44 # 5003002c <__stack_top+0x4002e03c>
     a38:	0007a783          	lw	x15,0(x15)
     a3c:	0017f793          	andi	x15,x15,1
     a40:	00078513          	addi	x10,x15,0
     a44:	00008067          	jalr	x0,0(x1)

00000a48 <wdt_clear>:
     a48:	500307b7          	lui	x15,0x50030
     a4c:	02c78793          	addi	x15,x15,44 # 5003002c <__stack_top+0x4002e03c>
     a50:	00100713          	addi	x14,x0,1
     a54:	00e7a023          	sw	x14,0(x15)
     a58:	0110000f          	fence	w,w
     a5c:	00000013          	addi	x0,x0,0
     a60:	00008067          	jalr	x0,0(x1)

00000a64 <timer_isr>:
     a64:	fb010113          	addi	x2,x2,-80
     a68:	04112623          	sw	x1,76(x2)
     a6c:	04512423          	sw	x5,72(x2)
     a70:	04612223          	sw	x6,68(x2)
     a74:	04712023          	sw	x7,64(x2)
     a78:	02a12e23          	sw	x10,60(x2)
     a7c:	02b12c23          	sw	x11,56(x2)
     a80:	02c12a23          	sw	x12,52(x2)
     a84:	02d12823          	sw	x13,48(x2)
     a88:	02e12623          	sw	x14,44(x2)
     a8c:	02f12423          	sw	x15,40(x2)
     a90:	03012223          	sw	x16,36(x2)
     a94:	03112023          	sw	x17,32(x2)
     a98:	01c12e23          	sw	x28,28(x2)
     a9c:	01d12c23          	sw	x29,24(x2)
     aa0:	01e12a23          	sw	x30,20(x2)
     aa4:	01f12823          	sw	x31,16(x2)
     aa8:	00000097          	auipc	x1,0x0
     aac:	bf8080e7          	jalr	x1,-1032(x1) # 6a0 <irq_mcause>
     ab0:	00a12623          	sw	x10,12(x2)
     ab4:	00c12783          	lw	x15,12(x2)
     ab8:	0ff7f713          	andi	x14,x15,255
     abc:	00b00793          	addi	x15,x0,11
     ac0:	04f71263          	bne	x14,x15,b04 <timer_isr+0xa0>
     ac4:	00000097          	auipc	x1,0x0
     ac8:	b18080e7          	jalr	x1,-1256(x1) # 5dc <plic_claim>
     acc:	00a12423          	sw	x10,8(x2)
     ad0:	00812703          	lw	x14,8(x2)
     ad4:	00500793          	addi	x15,x0,5
     ad8:	02f71063          	bne	x14,x15,af8 <timer_isr+0x94>
     adc:	00000097          	auipc	x1,0x0
     ae0:	ea4080e7          	jalr	x1,-348(x1) # 980 <timer0_clear>
     ae4:	100007b7          	lui	x15,0x10000
     ae8:	0bc7a783          	lw	x15,188(x15) # 100000bc <timer_irq_count>
     aec:	00178713          	addi	x14,x15,1
     af0:	100007b7          	lui	x15,0x10000
     af4:	0ae7ae23          	sw	x14,188(x15) # 100000bc <timer_irq_count>
     af8:	00812503          	lw	x10,8(x2)
     afc:	00000097          	auipc	x1,0x0
     b00:	af4080e7          	jalr	x1,-1292(x1) # 5f0 <plic_complete>
     b04:	00000013          	addi	x0,x0,0
     b08:	04c12083          	lw	x1,76(x2)
     b0c:	04812283          	lw	x5,72(x2)
     b10:	04412303          	lw	x6,68(x2)
     b14:	04012383          	lw	x7,64(x2)
     b18:	03c12503          	lw	x10,60(x2)
     b1c:	03812583          	lw	x11,56(x2)
     b20:	03412603          	lw	x12,52(x2)
     b24:	03012683          	lw	x13,48(x2)
     b28:	02c12703          	lw	x14,44(x2)
     b2c:	02812783          	lw	x15,40(x2)
     b30:	02412803          	lw	x16,36(x2)
     b34:	02012883          	lw	x17,32(x2)
     b38:	01c12e03          	lw	x28,28(x2)
     b3c:	01812e83          	lw	x29,24(x2)
     b40:	01412f03          	lw	x30,20(x2)
     b44:	01012f83          	lw	x31,16(x2)
     b48:	05010113          	addi	x2,x2,80
     b4c:	30200073          	mret

00000b50 <run_timer_test>:
     b50:	fe010113          	addi	x2,x2,-32
     b54:	00112e23          	sw	x1,28(x2)
     b58:	00000613          	addi	x12,x0,0
     b5c:	00000593          	addi	x11,x0,0
     b60:	36400513          	addi	x10,x0,868
     b64:	fffff097          	auipc	x1,0xfffff
     b68:	4c8080e7          	jalr	x1,1224(x1) # 2c <uart_init>
     b6c:	000017b7          	lui	x15,0x1
     b70:	38878513          	addi	x10,x15,904 # 1388 <run_plic_test+0x12c>
     b74:	00000097          	auipc	x1,0x0
     b78:	d2c080e7          	jalr	x1,-724(x1) # 8a0 <timer0_oneshot>
     b7c:	000407b7          	lui	x15,0x40
     b80:	fff78513          	addi	x10,x15,-1 # 3ffff <__data_load+0x3e6db>
     b84:	00000097          	auipc	x1,0x0
     b88:	db4080e7          	jalr	x1,-588(x1) # 938 <timer0_wait_timeout>
     b8c:	00050793          	addi	x15,x10,0
     b90:	00078663          	beq	x15,x0,b9c <run_timer_test+0x4c>
     b94:	fff00793          	addi	x15,x0,-1
     b98:	1b40006f          	jal	x0,d4c <run_timer_test+0x1fc>
     b9c:	00000097          	auipc	x1,0x0
     ba0:	de4080e7          	jalr	x1,-540(x1) # 980 <timer0_clear>
     ba4:	00000097          	auipc	x1,0x0
     ba8:	df8080e7          	jalr	x1,-520(x1) # 99c <timer0_stop>
     bac:	100007b7          	lui	x15,0x10000
     bb0:	0a07ae23          	sw	x0,188(x15) # 100000bc <timer_irq_count>
     bb4:	00000513          	addi	x10,x0,0
     bb8:	00000097          	auipc	x1,0x0
     bbc:	9fc080e7          	jalr	x1,-1540(x1) # 5b4 <plic_set_threshold>
     bc0:	00100593          	addi	x11,x0,1
     bc4:	00500513          	addi	x10,x0,5
     bc8:	00000097          	auipc	x1,0x0
     bcc:	930080e7          	jalr	x1,-1744(x1) # 4f8 <plic_set_priority>
     bd0:	00500513          	addi	x10,x0,5
     bd4:	00000097          	auipc	x1,0x0
     bd8:	95c080e7          	jalr	x1,-1700(x1) # 530 <plic_enable>
     bdc:	000017b7          	lui	x15,0x1
     be0:	a6478513          	addi	x10,x15,-1436 # a64 <timer_isr>
     be4:	00000097          	auipc	x1,0x0
     be8:	a34080e7          	jalr	x1,-1484(x1) # 618 <irq_set_mtvec>
     bec:	00000097          	auipc	x1,0x0
     bf0:	a80080e7          	jalr	x1,-1408(x1) # 66c <irq_enable_external>
     bf4:	00000097          	auipc	x1,0x0
     bf8:	a40080e7          	jalr	x1,-1472(x1) # 634 <irq_enable_global>
     bfc:	00100593          	addi	x11,x0,1
     c00:	3e800513          	addi	x10,x0,1000
     c04:	00000097          	auipc	x1,0x0
     c08:	cdc080e7          	jalr	x1,-804(x1) # 8e0 <timer0_autoreload>
     c0c:	000807b7          	lui	x15,0x80
     c10:	fff78793          	addi	x15,x15,-1 # 7ffff <__data_load+0x7e6db>
     c14:	00f12423          	sw	x15,8(x2)
     c18:	0280006f          	jal	x0,c40 <run_timer_test+0xf0>
     c1c:	00812783          	lw	x15,8(x2)
     c20:	fff78793          	addi	x15,x15,-1
     c24:	00f12423          	sw	x15,8(x2)
     c28:	00812783          	lw	x15,8(x2)
     c2c:	00079a63          	bne	x15,x0,c40 <run_timer_test+0xf0>
     c30:	00000097          	auipc	x1,0x0
     c34:	a10080e7          	jalr	x1,-1520(x1) # 640 <irq_disable_global>
     c38:	ffe00793          	addi	x15,x0,-2
     c3c:	1100006f          	jal	x0,d4c <run_timer_test+0x1fc>
     c40:	100007b7          	lui	x15,0x10000
     c44:	0bc7a703          	lw	x14,188(x15) # 100000bc <timer_irq_count>
     c48:	00200793          	addi	x15,x0,2
     c4c:	fce7f8e3          	bgeu	x15,x14,c1c <run_timer_test+0xcc>
     c50:	00000097          	auipc	x1,0x0
     c54:	9f0080e7          	jalr	x1,-1552(x1) # 640 <irq_disable_global>
     c58:	00000097          	auipc	x1,0x0
     c5c:	d44080e7          	jalr	x1,-700(x1) # 99c <timer0_stop>
     c60:	00500513          	addi	x10,x0,5
     c64:	00000097          	auipc	x1,0x0
     c68:	90c080e7          	jalr	x1,-1780(x1) # 570 <plic_disable>
     c6c:	0000c7b7          	lui	x15,0xc
     c70:	35078513          	addi	x10,x15,848 # c350 <__data_load+0xaa2c>
     c74:	00000097          	auipc	x1,0x0
     c78:	d3c080e7          	jalr	x1,-708(x1) # 9b0 <wdt_enable>
     c7c:	00012623          	sw	x0,12(x2)
     c80:	03c0006f          	jal	x0,cbc <run_timer_test+0x16c>
     c84:	00012223          	sw	x0,4(x2)
     c88:	0140006f          	jal	x0,c9c <run_timer_test+0x14c>
     c8c:	00000013          	addi	x0,x0,0
     c90:	00412783          	lw	x15,4(x2)
     c94:	00178793          	addi	x15,x15,1
     c98:	00f12223          	sw	x15,4(x2)
     c9c:	00412703          	lw	x14,4(x2)
     ca0:	0c700793          	addi	x15,x0,199
     ca4:	fee7f4e3          	bgeu	x15,x14,c8c <run_timer_test+0x13c>
     ca8:	00000097          	auipc	x1,0x0
     cac:	d50080e7          	jalr	x1,-688(x1) # 9f8 <wdt_feed>
     cb0:	00c12783          	lw	x15,12(x2)
     cb4:	00178793          	addi	x15,x15,1
     cb8:	00f12623          	sw	x15,12(x2)
     cbc:	00c12703          	lw	x14,12(x2)
     cc0:	00900793          	addi	x15,x0,9
     cc4:	fce7f0e3          	bgeu	x15,x14,c84 <run_timer_test+0x134>
     cc8:	00000097          	auipc	x1,0x0
     ccc:	d68080e7          	jalr	x1,-664(x1) # a30 <wdt_expired>
     cd0:	00050793          	addi	x15,x10,0
     cd4:	00078663          	beq	x15,x0,ce0 <run_timer_test+0x190>
     cd8:	ffd00793          	addi	x15,x0,-3
     cdc:	0700006f          	jal	x0,d4c <run_timer_test+0x1fc>
     ce0:	00000097          	auipc	x1,0x0
     ce4:	d38080e7          	jalr	x1,-712(x1) # a18 <wdt_disable>
     ce8:	00000097          	auipc	x1,0x0
     cec:	d60080e7          	jalr	x1,-672(x1) # a48 <wdt_clear>
     cf0:	0c800513          	addi	x10,x0,200
     cf4:	00000097          	auipc	x1,0x0
     cf8:	cbc080e7          	jalr	x1,-836(x1) # 9b0 <wdt_enable>
     cfc:	000107b7          	lui	x15,0x10
     d00:	fff78793          	addi	x15,x15,-1 # ffff <__data_load+0xe6db>
     d04:	00f12423          	sw	x15,8(x2)
     d08:	0200006f          	jal	x0,d28 <run_timer_test+0x1d8>
     d0c:	00812783          	lw	x15,8(x2)
     d10:	fff78793          	addi	x15,x15,-1
     d14:	00f12423          	sw	x15,8(x2)
     d18:	00812783          	lw	x15,8(x2)
     d1c:	00079663          	bne	x15,x0,d28 <run_timer_test+0x1d8>
     d20:	ffc00793          	addi	x15,x0,-4
     d24:	0280006f          	jal	x0,d4c <run_timer_test+0x1fc>
     d28:	00000097          	auipc	x1,0x0
     d2c:	d08080e7          	jalr	x1,-760(x1) # a30 <wdt_expired>
     d30:	00050793          	addi	x15,x10,0
     d34:	fc078ce3          	beq	x15,x0,d0c <run_timer_test+0x1bc>
     d38:	00000097          	auipc	x1,0x0
     d3c:	d10080e7          	jalr	x1,-752(x1) # a48 <wdt_clear>
     d40:	00000097          	auipc	x1,0x0
     d44:	cd8080e7          	jalr	x1,-808(x1) # a18 <wdt_disable>
     d48:	00000793          	addi	x15,x0,0
     d4c:	00078513          	addi	x10,x15,0
     d50:	01c12083          	lw	x1,28(x2)
     d54:	02010113          	addi	x2,x2,32
     d58:	00008067          	jalr	x0,0(x1)

00000d5c <clint_mtime>:
     d5c:	ff010113          	addi	x2,x2,-16
     d60:	4000c337          	lui	x6,0x4000c
     d64:	ffc30313          	addi	x6,x6,-4 # 4000bffc <__stack_top+0x3000a00c>
     d68:	00032303          	lw	x6,0(x6)
     d6c:	00612623          	sw	x6,12(x2)
     d70:	4000c337          	lui	x6,0x4000c
     d74:	ff830313          	addi	x6,x6,-8 # 4000bff8 <__stack_top+0x3000a008>
     d78:	00032303          	lw	x6,0(x6)
     d7c:	00612423          	sw	x6,8(x2)
     d80:	4000c337          	lui	x6,0x4000c
     d84:	ffc30313          	addi	x6,x6,-4 # 4000bffc <__stack_top+0x3000a00c>
     d88:	00032303          	lw	x6,0(x6)
     d8c:	00612223          	sw	x6,4(x2)
     d90:	00c12e03          	lw	x28,12(x2)
     d94:	00412303          	lw	x6,4(x2)
     d98:	fc6e14e3          	bne	x28,x6,d60 <clint_mtime+0x4>
     d9c:	00c12303          	lw	x6,12(x2)
     da0:	00030813          	addi	x16,x6,0
     da4:	00000893          	addi	x17,x0,0
     da8:	00081793          	slli	x15,x16,0x0
     dac:	00000713          	addi	x14,x0,0
     db0:	00812803          	lw	x16,8(x2)
     db4:	00080613          	addi	x12,x16,0
     db8:	00000693          	addi	x13,x0,0
     dbc:	00c76533          	or	x10,x14,x12
     dc0:	00d7e5b3          	or	x11,x15,x13
     dc4:	00050713          	addi	x14,x10,0
     dc8:	00058793          	addi	x15,x11,0
     dcc:	00070513          	addi	x10,x14,0
     dd0:	00078593          	addi	x11,x15,0
     dd4:	01010113          	addi	x2,x2,16
     dd8:	00008067          	jalr	x0,0(x1)

00000ddc <clint_set_mtimecmp>:
     ddc:	ff010113          	addi	x2,x2,-16
     de0:	00a12423          	sw	x10,8(x2)
     de4:	00b12623          	sw	x11,12(x2)
     de8:	400046b7          	lui	x13,0x40004
     dec:	00468693          	addi	x13,x13,4 # 40004004 <__stack_top+0x30002014>
     df0:	fff00613          	addi	x12,x0,-1
     df4:	00c6a023          	sw	x12,0(x13)
     df8:	0110000f          	fence	w,w
     dfc:	400046b7          	lui	x13,0x40004
     e00:	00812603          	lw	x12,8(x2)
     e04:	00c6a023          	sw	x12,0(x13) # 40004000 <__stack_top+0x30002010>
     e08:	0110000f          	fence	w,w
     e0c:	00c12683          	lw	x13,12(x2)
     e10:	0006d713          	srli	x14,x13,0x0
     e14:	00000793          	addi	x15,x0,0
     e18:	400046b7          	lui	x13,0x40004
     e1c:	00468693          	addi	x13,x13,4 # 40004004 <__stack_top+0x30002014>
     e20:	00070793          	addi	x15,x14,0
     e24:	00f6a023          	sw	x15,0(x13)
     e28:	0110000f          	fence	w,w
     e2c:	00000013          	addi	x0,x0,0
     e30:	01010113          	addi	x2,x2,16
     e34:	00008067          	jalr	x0,0(x1)

00000e38 <clint_set_timer_delay_us>:
     e38:	fd010113          	addi	x2,x2,-48
     e3c:	02112623          	sw	x1,44(x2)
     e40:	02812423          	sw	x8,40(x2)
     e44:	02912223          	sw	x9,36(x2)
     e48:	00a12623          	sw	x10,12(x2)
     e4c:	00000097          	auipc	x1,0x0
     e50:	f10080e7          	jalr	x1,-240(x1) # d5c <clint_mtime>
     e54:	00a12c23          	sw	x10,24(x2)
     e58:	00b12e23          	sw	x11,28(x2)
     e5c:	00c12783          	lw	x15,12(x2)
     e60:	00078413          	addi	x8,x15,0
     e64:	00000493          	addi	x9,x0,0
     e68:	01812603          	lw	x12,24(x2)
     e6c:	01c12683          	lw	x13,28(x2)
     e70:	00c40733          	add	x14,x8,x12
     e74:	00070593          	addi	x11,x14,0
     e78:	0085b5b3          	sltu	x11,x11,x8
     e7c:	00d487b3          	add	x15,x9,x13
     e80:	00f586b3          	add	x13,x11,x15
     e84:	00068793          	addi	x15,x13,0
     e88:	00070513          	addi	x10,x14,0
     e8c:	00078593          	addi	x11,x15,0
     e90:	00000097          	auipc	x1,0x0
     e94:	f4c080e7          	jalr	x1,-180(x1) # ddc <clint_set_mtimecmp>
     e98:	00000013          	addi	x0,x0,0
     e9c:	02c12083          	lw	x1,44(x2)
     ea0:	02812403          	lw	x8,40(x2)
     ea4:	02412483          	lw	x9,36(x2)
     ea8:	03010113          	addi	x2,x2,48
     eac:	00008067          	jalr	x0,0(x1)

00000eb0 <clint_clear_timer>:
     eb0:	ff010113          	addi	x2,x2,-16
     eb4:	00112623          	sw	x1,12(x2)
     eb8:	fff00513          	addi	x10,x0,-1
     ebc:	fff00593          	addi	x11,x0,-1
     ec0:	00000097          	auipc	x1,0x0
     ec4:	f1c080e7          	jalr	x1,-228(x1) # ddc <clint_set_mtimecmp>
     ec8:	00000013          	addi	x0,x0,0
     ecc:	00c12083          	lw	x1,12(x2)
     ed0:	01010113          	addi	x2,x2,16
     ed4:	00008067          	jalr	x0,0(x1)

00000ed8 <clint_sw_irq_set>:
     ed8:	400007b7          	lui	x15,0x40000
     edc:	00100713          	addi	x14,x0,1
     ee0:	00e7a023          	sw	x14,0(x15) # 40000000 <__stack_top+0x2fffe010>
     ee4:	0110000f          	fence	w,w
     ee8:	00000013          	addi	x0,x0,0
     eec:	00008067          	jalr	x0,0(x1)

00000ef0 <clint_sw_irq_clear>:
     ef0:	400007b7          	lui	x15,0x40000
     ef4:	0007a023          	sw	x0,0(x15) # 40000000 <__stack_top+0x2fffe010>
     ef8:	0110000f          	fence	w,w
     efc:	00000013          	addi	x0,x0,0
     f00:	00008067          	jalr	x0,0(x1)

00000f04 <clint_isr>:
     f04:	fb010113          	addi	x2,x2,-80
     f08:	04112623          	sw	x1,76(x2)
     f0c:	04512423          	sw	x5,72(x2)
     f10:	04612223          	sw	x6,68(x2)
     f14:	04712023          	sw	x7,64(x2)
     f18:	02a12e23          	sw	x10,60(x2)
     f1c:	02b12c23          	sw	x11,56(x2)
     f20:	02c12a23          	sw	x12,52(x2)
     f24:	02d12823          	sw	x13,48(x2)
     f28:	02e12623          	sw	x14,44(x2)
     f2c:	02f12423          	sw	x15,40(x2)
     f30:	03012223          	sw	x16,36(x2)
     f34:	03112023          	sw	x17,32(x2)
     f38:	01c12e23          	sw	x28,28(x2)
     f3c:	01d12c23          	sw	x29,24(x2)
     f40:	01e12a23          	sw	x30,20(x2)
     f44:	01f12823          	sw	x31,16(x2)
     f48:	fffff097          	auipc	x1,0xfffff
     f4c:	758080e7          	jalr	x1,1880(x1) # 6a0 <irq_mcause>
     f50:	00a12623          	sw	x10,12(x2)
     f54:	00c12703          	lw	x14,12(x2)
     f58:	800007b7          	lui	x15,0x80000
     f5c:	00778793          	addi	x15,x15,7 # 80000007 <__stack_top+0x6fffe017>
     f60:	00f71e63          	bne	x14,x15,f7c <clint_isr+0x78>
     f64:	00000097          	auipc	x1,0x0
     f68:	f4c080e7          	jalr	x1,-180(x1) # eb0 <clint_clear_timer>
     f6c:	100007b7          	lui	x15,0x10000
     f70:	00100713          	addi	x14,x0,1
     f74:	0ce7a023          	sw	x14,192(x15) # 100000c0 <clint_timer_flag>
     f78:	0280006f          	jal	x0,fa0 <clint_isr+0x9c>
     f7c:	00c12703          	lw	x14,12(x2)
     f80:	800007b7          	lui	x15,0x80000
     f84:	00378793          	addi	x15,x15,3 # 80000003 <__stack_top+0x6fffe013>
     f88:	00f71c63          	bne	x14,x15,fa0 <clint_isr+0x9c>
     f8c:	00000097          	auipc	x1,0x0
     f90:	f64080e7          	jalr	x1,-156(x1) # ef0 <clint_sw_irq_clear>
     f94:	100007b7          	lui	x15,0x10000
     f98:	00100713          	addi	x14,x0,1
     f9c:	0ce7a223          	sw	x14,196(x15) # 100000c4 <clint_sw_flag>
     fa0:	00000013          	addi	x0,x0,0
     fa4:	04c12083          	lw	x1,76(x2)
     fa8:	04812283          	lw	x5,72(x2)
     fac:	04412303          	lw	x6,68(x2)
     fb0:	04012383          	lw	x7,64(x2)
     fb4:	03c12503          	lw	x10,60(x2)
     fb8:	03812583          	lw	x11,56(x2)
     fbc:	03412603          	lw	x12,52(x2)
     fc0:	03012683          	lw	x13,48(x2)
     fc4:	02c12703          	lw	x14,44(x2)
     fc8:	02812783          	lw	x15,40(x2)
     fcc:	02412803          	lw	x16,36(x2)
     fd0:	02012883          	lw	x17,32(x2)
     fd4:	01c12e03          	lw	x28,28(x2)
     fd8:	01812e83          	lw	x29,24(x2)
     fdc:	01412f03          	lw	x30,20(x2)
     fe0:	01012f83          	lw	x31,16(x2)
     fe4:	05010113          	addi	x2,x2,80
     fe8:	30200073          	mret

00000fec <run_clint_test>:
     fec:	fd010113          	addi	x2,x2,-48
     ff0:	02112623          	sw	x1,44(x2)
     ff4:	00000613          	addi	x12,x0,0
     ff8:	00000593          	addi	x11,x0,0
     ffc:	36400513          	addi	x10,x0,868
    1000:	fffff097          	auipc	x1,0xfffff
    1004:	02c080e7          	jalr	x1,44(x1) # 2c <uart_init>
    1008:	00000097          	auipc	x1,0x0
    100c:	d54080e7          	jalr	x1,-684(x1) # d5c <clint_mtime>
    1010:	00a12823          	sw	x10,16(x2)
    1014:	00b12a23          	sw	x11,20(x2)
    1018:	00012c23          	sw	x0,24(x2)
    101c:	0140006f          	jal	x0,1030 <run_clint_test+0x44>
    1020:	00000013          	addi	x0,x0,0
    1024:	01812783          	lw	x15,24(x2)
    1028:	00178793          	addi	x15,x15,1
    102c:	00f12c23          	sw	x15,24(x2)
    1030:	01812703          	lw	x14,24(x2)
    1034:	0c700793          	addi	x15,x0,199
    1038:	fee7f4e3          	bgeu	x15,x14,1020 <run_clint_test+0x34>
    103c:	00000097          	auipc	x1,0x0
    1040:	d20080e7          	jalr	x1,-736(x1) # d5c <clint_mtime>
    1044:	00a12423          	sw	x10,8(x2)
    1048:	00b12623          	sw	x11,12(x2)
    104c:	00c12703          	lw	x14,12(x2)
    1050:	01412783          	lw	x15,20(x2)
    1054:	02e7e263          	bltu	x15,x14,1078 <run_clint_test+0x8c>
    1058:	00c12703          	lw	x14,12(x2)
    105c:	01412783          	lw	x15,20(x2)
    1060:	00f71863          	bne	x14,x15,1070 <run_clint_test+0x84>
    1064:	00812703          	lw	x14,8(x2)
    1068:	01012783          	lw	x15,16(x2)
    106c:	00e7e663          	bltu	x15,x14,1078 <run_clint_test+0x8c>
    1070:	fff00793          	addi	x15,x0,-1
    1074:	0fc0006f          	jal	x0,1170 <run_clint_test+0x184>
    1078:	100007b7          	lui	x15,0x10000
    107c:	0c07a023          	sw	x0,192(x15) # 100000c0 <clint_timer_flag>
    1080:	000017b7          	lui	x15,0x1
    1084:	f0478513          	addi	x10,x15,-252 # f04 <clint_isr>
    1088:	fffff097          	auipc	x1,0xfffff
    108c:	590080e7          	jalr	x1,1424(x1) # 618 <irq_set_mtvec>
    1090:	fffff097          	auipc	x1,0xfffff
    1094:	5cc080e7          	jalr	x1,1484(x1) # 65c <irq_enable_timer>
    1098:	fffff097          	auipc	x1,0xfffff
    109c:	59c080e7          	jalr	x1,1436(x1) # 634 <irq_enable_global>
    10a0:	06400513          	addi	x10,x0,100
    10a4:	00000097          	auipc	x1,0x0
    10a8:	d94080e7          	jalr	x1,-620(x1) # e38 <clint_set_timer_delay_us>
    10ac:	000807b7          	lui	x15,0x80
    10b0:	fff78793          	addi	x15,x15,-1 # 7ffff <__data_load+0x7e6db>
    10b4:	00f12e23          	sw	x15,28(x2)
    10b8:	0300006f          	jal	x0,10e8 <run_clint_test+0xfc>
    10bc:	01c12783          	lw	x15,28(x2)
    10c0:	fff78793          	addi	x15,x15,-1
    10c4:	00f12e23          	sw	x15,28(x2)
    10c8:	01c12783          	lw	x15,28(x2)
    10cc:	00079e63          	bne	x15,x0,10e8 <run_clint_test+0xfc>
    10d0:	fffff097          	auipc	x1,0xfffff
    10d4:	570080e7          	jalr	x1,1392(x1) # 640 <irq_disable_global>
    10d8:	fffff097          	auipc	x1,0xfffff
    10dc:	5b8080e7          	jalr	x1,1464(x1) # 690 <irq_disable_timer>
    10e0:	ffe00793          	addi	x15,x0,-2
    10e4:	08c0006f          	jal	x0,1170 <run_clint_test+0x184>
    10e8:	100007b7          	lui	x15,0x10000
    10ec:	0c07a783          	lw	x15,192(x15) # 100000c0 <clint_timer_flag>
    10f0:	fc0786e3          	beq	x15,x0,10bc <run_clint_test+0xd0>
    10f4:	fffff097          	auipc	x1,0xfffff
    10f8:	59c080e7          	jalr	x1,1436(x1) # 690 <irq_disable_timer>
    10fc:	100007b7          	lui	x15,0x10000
    1100:	0c07a223          	sw	x0,196(x15) # 100000c4 <clint_sw_flag>
    1104:	fffff097          	auipc	x1,0xfffff
    1108:	548080e7          	jalr	x1,1352(x1) # 64c <irq_enable_software>
    110c:	00000097          	auipc	x1,0x0
    1110:	dcc080e7          	jalr	x1,-564(x1) # ed8 <clint_sw_irq_set>
    1114:	000407b7          	lui	x15,0x40
    1118:	fff78793          	addi	x15,x15,-1 # 3ffff <__data_load+0x3e6db>
    111c:	00f12e23          	sw	x15,28(x2)
    1120:	0300006f          	jal	x0,1150 <run_clint_test+0x164>
    1124:	01c12783          	lw	x15,28(x2)
    1128:	fff78793          	addi	x15,x15,-1
    112c:	00f12e23          	sw	x15,28(x2)
    1130:	01c12783          	lw	x15,28(x2)
    1134:	00079e63          	bne	x15,x0,1150 <run_clint_test+0x164>
    1138:	fffff097          	auipc	x1,0xfffff
    113c:	508080e7          	jalr	x1,1288(x1) # 640 <irq_disable_global>
    1140:	fffff097          	auipc	x1,0xfffff
    1144:	540080e7          	jalr	x1,1344(x1) # 680 <irq_disable_software>
    1148:	ffd00793          	addi	x15,x0,-3
    114c:	0240006f          	jal	x0,1170 <run_clint_test+0x184>
    1150:	100007b7          	lui	x15,0x10000
    1154:	0c47a783          	lw	x15,196(x15) # 100000c4 <clint_sw_flag>
    1158:	fc0786e3          	beq	x15,x0,1124 <run_clint_test+0x138>
    115c:	fffff097          	auipc	x1,0xfffff
    1160:	524080e7          	jalr	x1,1316(x1) # 680 <irq_disable_software>
    1164:	fffff097          	auipc	x1,0xfffff
    1168:	4dc080e7          	jalr	x1,1244(x1) # 640 <irq_disable_global>
    116c:	00000793          	addi	x15,x0,0
    1170:	00078513          	addi	x10,x15,0
    1174:	02c12083          	lw	x1,44(x2)
    1178:	03010113          	addi	x2,x2,48
    117c:	00008067          	jalr	x0,0(x1)

00001180 <plic_isr>:
    1180:	fb010113          	addi	x2,x2,-80
    1184:	04112623          	sw	x1,76(x2)
    1188:	04512423          	sw	x5,72(x2)
    118c:	04612223          	sw	x6,68(x2)
    1190:	04712023          	sw	x7,64(x2)
    1194:	02a12e23          	sw	x10,60(x2)
    1198:	02b12c23          	sw	x11,56(x2)
    119c:	02c12a23          	sw	x12,52(x2)
    11a0:	02d12823          	sw	x13,48(x2)
    11a4:	02e12623          	sw	x14,44(x2)
    11a8:	02f12423          	sw	x15,40(x2)
    11ac:	03012223          	sw	x16,36(x2)
    11b0:	03112023          	sw	x17,32(x2)
    11b4:	01c12e23          	sw	x28,28(x2)
    11b8:	01d12c23          	sw	x29,24(x2)
    11bc:	01e12a23          	sw	x30,20(x2)
    11c0:	01f12823          	sw	x31,16(x2)
    11c4:	fffff097          	auipc	x1,0xfffff
    11c8:	4dc080e7          	jalr	x1,1244(x1) # 6a0 <irq_mcause>
    11cc:	00a12623          	sw	x10,12(x2)
    11d0:	00c12783          	lw	x15,12(x2)
    11d4:	0ff7f713          	andi	x14,x15,255
    11d8:	00b00793          	addi	x15,x0,11
    11dc:	02f71a63          	bne	x14,x15,1210 <plic_isr+0x90>
    11e0:	fffff097          	auipc	x1,0xfffff
    11e4:	3fc080e7          	jalr	x1,1020(x1) # 5dc <plic_claim>
    11e8:	00a12423          	sw	x10,8(x2)
    11ec:	100007b7          	lui	x15,0x10000
    11f0:	00812703          	lw	x14,8(x2)
    11f4:	0ce7a623          	sw	x14,204(x15) # 100000cc <plic_claimed_src>
    11f8:	00812503          	lw	x10,8(x2)
    11fc:	fffff097          	auipc	x1,0xfffff
    1200:	3f4080e7          	jalr	x1,1012(x1) # 5f0 <plic_complete>
    1204:	100007b7          	lui	x15,0x10000
    1208:	00100713          	addi	x14,x0,1
    120c:	0ce7a423          	sw	x14,200(x15) # 100000c8 <plic_irq_flag>
    1210:	00000013          	addi	x0,x0,0
    1214:	04c12083          	lw	x1,76(x2)
    1218:	04812283          	lw	x5,72(x2)
    121c:	04412303          	lw	x6,68(x2)
    1220:	04012383          	lw	x7,64(x2)
    1224:	03c12503          	lw	x10,60(x2)
    1228:	03812583          	lw	x11,56(x2)
    122c:	03412603          	lw	x12,52(x2)
    1230:	03012683          	lw	x13,48(x2)
    1234:	02c12703          	lw	x14,44(x2)
    1238:	02812783          	lw	x15,40(x2)
    123c:	02412803          	lw	x16,36(x2)
    1240:	02012883          	lw	x17,32(x2)
    1244:	01c12e03          	lw	x28,28(x2)
    1248:	01812e83          	lw	x29,24(x2)
    124c:	01412f03          	lw	x30,20(x2)
    1250:	01012f83          	lw	x31,16(x2)
    1254:	05010113          	addi	x2,x2,80
    1258:	30200073          	mret

0000125c <run_plic_test>:
    125c:	fe010113          	addi	x2,x2,-32
    1260:	00112e23          	sw	x1,28(x2)
    1264:	00000613          	addi	x12,x0,0
    1268:	00000593          	addi	x11,x0,0
    126c:	36400513          	addi	x10,x0,868
    1270:	fffff097          	auipc	x1,0xfffff
    1274:	dbc080e7          	jalr	x1,-580(x1) # 2c <uart_init>
    1278:	00000513          	addi	x10,x0,0
    127c:	fffff097          	auipc	x1,0xfffff
    1280:	338080e7          	jalr	x1,824(x1) # 5b4 <plic_set_threshold>
    1284:	00100593          	addi	x11,x0,1
    1288:	00800513          	addi	x10,x0,8
    128c:	fffff097          	auipc	x1,0xfffff
    1290:	26c080e7          	jalr	x1,620(x1) # 4f8 <plic_set_priority>
    1294:	00800513          	addi	x10,x0,8
    1298:	fffff097          	auipc	x1,0xfffff
    129c:	298080e7          	jalr	x1,664(x1) # 530 <plic_enable>
    12a0:	000017b7          	lui	x15,0x1
    12a4:	18078513          	addi	x10,x15,384 # 1180 <plic_isr>
    12a8:	fffff097          	auipc	x1,0xfffff
    12ac:	370080e7          	jalr	x1,880(x1) # 618 <irq_set_mtvec>
    12b0:	fffff097          	auipc	x1,0xfffff
    12b4:	3bc080e7          	jalr	x1,956(x1) # 66c <irq_enable_external>
    12b8:	fffff097          	auipc	x1,0xfffff
    12bc:	37c080e7          	jalr	x1,892(x1) # 634 <irq_enable_global>
    12c0:	00200793          	addi	x15,x0,2
    12c4:	200002b7          	lui	x5,0x20000
    12c8:	02f2a023          	sw	x15,32(x5) # 20000020 <__stack_top+0xfffe030>
    12cc:	0110000f          	fence	w,w
    12d0:	00000793          	addi	x15,x0,0
    12d4:	200002b7          	lui	x5,0x20000
    12d8:	00f2a023          	sw	x15,0(x5) # 20000000 <__stack_top+0xfffe010>
    12dc:	0110000f          	fence	w,w
    12e0:	deadc7b7          	lui	x15,0xdeadc
    12e4:	eef78793          	addi	x15,x15,-273 # deadbeef <__stack_top+0xcead9eff>
    12e8:	200002b7          	lui	x5,0x20000
    12ec:	00f2a823          	sw	x15,16(x5) # 20000010 <__stack_top+0xfffe020>
    12f0:	0110000f          	fence	w,w
    12f4:	cafec7b7          	lui	x15,0xcafec
    12f8:	abe78793          	addi	x15,x15,-1346 # cafebabe <__stack_top+0xbafe9ace>
    12fc:	200002b7          	lui	x5,0x20000
    1300:	00f2aa23          	sw	x15,20(x5) # 20000014 <__stack_top+0xfffe024>
    1304:	0110000f          	fence	w,w
    1308:	012347b7          	lui	x15,0x1234
    130c:	56778793          	addi	x15,x15,1383 # 1234567 <__data_load+0x1232c43>
    1310:	200002b7          	lui	x5,0x20000
    1314:	00f2ac23          	sw	x15,24(x5) # 20000018 <__stack_top+0xfffe028>
    1318:	0110000f          	fence	w,w
    131c:	89abd7b7          	lui	x15,0x89abd
    1320:	def78793          	addi	x15,x15,-529 # 89abcdef <__stack_top+0x79abadff>
    1324:	200002b7          	lui	x5,0x20000
    1328:	00f2ae23          	sw	x15,28(x5) # 2000001c <__stack_top+0xfffe02c>
    132c:	0110000f          	fence	w,w
    1330:	111117b7          	lui	x15,0x11111
    1334:	11178793          	addi	x15,x15,273 # 11111111 <__stack_top+0x110f121>
    1338:	200002b7          	lui	x5,0x20000
    133c:	02f2a223          	sw	x15,36(x5) # 20000024 <__stack_top+0xfffe034>
    1340:	0110000f          	fence	w,w
    1344:	222227b7          	lui	x15,0x22222
    1348:	22278793          	addi	x15,x15,546 # 22222222 <__stack_top+0x12220232>
    134c:	200002b7          	lui	x5,0x20000
    1350:	02f2a423          	sw	x15,40(x5) # 20000028 <__stack_top+0xfffe038>
    1354:	0110000f          	fence	w,w
    1358:	333337b7          	lui	x15,0x33333
    135c:	33378793          	addi	x15,x15,819 # 33333333 <__stack_top+0x23331343>
    1360:	200002b7          	lui	x5,0x20000
    1364:	02f2a623          	sw	x15,44(x5) # 2000002c <__stack_top+0xfffe03c>
    1368:	0110000f          	fence	w,w
    136c:	444447b7          	lui	x15,0x44444
    1370:	44478793          	addi	x15,x15,1092 # 44444444 <__stack_top+0x34442454>
    1374:	200002b7          	lui	x5,0x20000
    1378:	02f2a823          	sw	x15,48(x5) # 20000030 <__stack_top+0xfffe040>
    137c:	0110000f          	fence	w,w
    1380:	aabbd7b7          	lui	x15,0xaabbd
    1384:	cdd78793          	addi	x15,x15,-803 # aabbccdd <__stack_top+0x9abbaced>
    1388:	200002b7          	lui	x5,0x20000
    138c:	02f2aa23          	sw	x15,52(x5) # 20000034 <__stack_top+0xfffe044>
    1390:	0110000f          	fence	w,w
    1394:	00000793          	addi	x15,x0,0
    1398:	200002b7          	lui	x5,0x20000
    139c:	02f2ac23          	sw	x15,56(x5) # 20000038 <__stack_top+0xfffe048>
    13a0:	0110000f          	fence	w,w
    13a4:	00400793          	addi	x15,x0,4
    13a8:	200002b7          	lui	x5,0x20000
    13ac:	02f2ae23          	sw	x15,60(x5) # 2000003c <__stack_top+0xfffe04c>
    13b0:	0110000f          	fence	w,w
    13b4:	00100793          	addi	x15,x0,1
    13b8:	200002b7          	lui	x5,0x20000
    13bc:	00f2a623          	sw	x15,12(x5) # 2000000c <__stack_top+0xfffe01c>
    13c0:	0110000f          	fence	w,w
    13c4:	0330000f          	fence	rw,rw
    13c8:	00100793          	addi	x15,x0,1
    13cc:	200002b7          	lui	x5,0x20000
    13d0:	02f2a023          	sw	x15,32(x5) # 20000020 <__stack_top+0xfffe030>
    13d4:	0110000f          	fence	w,w
    13d8:	000807b7          	lui	x15,0x80
    13dc:	fff78793          	addi	x15,x15,-1 # 7ffff <__data_load+0x7e6db>
    13e0:	00f12623          	sw	x15,12(x2)
    13e4:	0280006f          	jal	x0,140c <run_plic_test+0x1b0>
    13e8:	00c12783          	lw	x15,12(x2)
    13ec:	fff78793          	addi	x15,x15,-1
    13f0:	00f12623          	sw	x15,12(x2)
    13f4:	00c12783          	lw	x15,12(x2)
    13f8:	00079a63          	bne	x15,x0,140c <run_plic_test+0x1b0>
    13fc:	fffff097          	auipc	x1,0xfffff
    1400:	244080e7          	jalr	x1,580(x1) # 640 <irq_disable_global>
    1404:	fff00793          	addi	x15,x0,-1
    1408:	0340006f          	jal	x0,143c <run_plic_test+0x1e0>
    140c:	100007b7          	lui	x15,0x10000
    1410:	0c87a783          	lw	x15,200(x15) # 100000c8 <plic_irq_flag>
    1414:	fc078ae3          	beq	x15,x0,13e8 <run_plic_test+0x18c>
    1418:	fffff097          	auipc	x1,0xfffff
    141c:	228080e7          	jalr	x1,552(x1) # 640 <irq_disable_global>
    1420:	100007b7          	lui	x15,0x10000
    1424:	0cc7a703          	lw	x14,204(x15) # 100000cc <plic_claimed_src>
    1428:	00800793          	addi	x15,x0,8
    142c:	00f70663          	beq	x14,x15,1438 <run_plic_test+0x1dc>
    1430:	ffe00793          	addi	x15,x0,-2
    1434:	0080006f          	jal	x0,143c <run_plic_test+0x1e0>
    1438:	00000793          	addi	x15,x0,0
    143c:	00078513          	addi	x10,x15,0
    1440:	01c12083          	lw	x1,28(x2)
    1444:	02010113          	addi	x2,x2,32
    1448:	00008067          	jalr	x0,0(x1)

0000144c <run_ascon_test>:
    144c:	fd010113          	addi	x2,x2,-48
    1450:	02112623          	sw	x1,44(x2)
    1454:	00012823          	sw	x0,16(x2)
    1458:	00012e23          	sw	x0,28(x2)
    145c:	00000613          	addi	x12,x0,0
    1460:	00000593          	addi	x11,x0,0
    1464:	36400513          	addi	x10,x0,868
    1468:	fffff097          	auipc	x1,0xfffff
    146c:	bc4080e7          	jalr	x1,-1084(x1) # 2c <uart_init>
    1470:	100007b7          	lui	x15,0x10000
    1474:	22078793          	addi	x15,x15,544 # 10000220 <__bss_end+0x150>
    1478:	00f12623          	sw	x15,12(x2)
    147c:	00012a23          	sw	x0,20(x2)
    1480:	0540006f          	jal	x0,14d4 <run_ascon_test+0x88>
    1484:	01412783          	lw	x15,20(x2)
    1488:	00379793          	slli	x15,x15,0x3
    148c:	00c12703          	lw	x14,12(x2)
    1490:	00f707b3          	add	x15,x14,x15
    1494:	01412683          	lw	x13,20(x2)
    1498:	a0000737          	lui	x14,0xa0000
    149c:	00e6e733          	or	x14,x13,x14
    14a0:	00e7a023          	sw	x14,0(x15)
    14a4:	01412783          	lw	x15,20(x2)
    14a8:	00379793          	slli	x15,x15,0x3
    14ac:	00478793          	addi	x15,x15,4
    14b0:	00c12703          	lw	x14,12(x2)
    14b4:	00f707b3          	add	x15,x14,x15
    14b8:	01412683          	lw	x13,20(x2)
    14bc:	b0000737          	lui	x14,0xb0000
    14c0:	00e6e733          	or	x14,x13,x14
    14c4:	00e7a023          	sw	x14,0(x15)
    14c8:	01412783          	lw	x15,20(x2)
    14cc:	00178793          	addi	x15,x15,1
    14d0:	00f12a23          	sw	x15,20(x2)
    14d4:	01412703          	lw	x14,20(x2)
    14d8:	00f00793          	addi	x15,x0,15
    14dc:	fae7f4e3          	bgeu	x15,x14,1484 <run_ascon_test+0x38>
    14e0:	00200793          	addi	x15,x0,2
    14e4:	200002b7          	lui	x5,0x20000
    14e8:	02f2a023          	sw	x15,32(x5) # 20000020 <__stack_top+0xfffe030>
    14ec:	0110000f          	fence	w,w
    14f0:	00000793          	addi	x15,x0,0
    14f4:	200002b7          	lui	x5,0x20000
    14f8:	00f2a023          	sw	x15,0(x5) # 20000000 <__stack_top+0xfffe010>
    14fc:	0110000f          	fence	w,w
    1500:	deadc7b7          	lui	x15,0xdeadc
    1504:	eef78793          	addi	x15,x15,-273 # deadbeef <__stack_top+0xcead9eff>
    1508:	200002b7          	lui	x5,0x20000
    150c:	00f2a823          	sw	x15,16(x5) # 20000010 <__stack_top+0xfffe020>
    1510:	0110000f          	fence	w,w
    1514:	cafec7b7          	lui	x15,0xcafec
    1518:	abe78793          	addi	x15,x15,-1346 # cafebabe <__stack_top+0xbafe9ace>
    151c:	200002b7          	lui	x5,0x20000
    1520:	00f2aa23          	sw	x15,20(x5) # 20000014 <__stack_top+0xfffe024>
    1524:	0110000f          	fence	w,w
    1528:	012347b7          	lui	x15,0x1234
    152c:	56778793          	addi	x15,x15,1383 # 1234567 <__data_load+0x1232c43>
    1530:	200002b7          	lui	x5,0x20000
    1534:	00f2ac23          	sw	x15,24(x5) # 20000018 <__stack_top+0xfffe028>
    1538:	0110000f          	fence	w,w
    153c:	89abd7b7          	lui	x15,0x89abd
    1540:	def78793          	addi	x15,x15,-529 # 89abcdef <__stack_top+0x79abadff>
    1544:	200002b7          	lui	x5,0x20000
    1548:	00f2ae23          	sw	x15,28(x5) # 2000001c <__stack_top+0xfffe02c>
    154c:	0110000f          	fence	w,w
    1550:	111117b7          	lui	x15,0x11111
    1554:	11178793          	addi	x15,x15,273 # 11111111 <__stack_top+0x110f121>
    1558:	200002b7          	lui	x5,0x20000
    155c:	02f2a223          	sw	x15,36(x5) # 20000024 <__stack_top+0xfffe034>
    1560:	0110000f          	fence	w,w
    1564:	222227b7          	lui	x15,0x22222
    1568:	22278793          	addi	x15,x15,546 # 22222222 <__stack_top+0x12220232>
    156c:	200002b7          	lui	x5,0x20000
    1570:	02f2a423          	sw	x15,40(x5) # 20000028 <__stack_top+0xfffe038>
    1574:	0110000f          	fence	w,w
    1578:	333337b7          	lui	x15,0x33333
    157c:	33378793          	addi	x15,x15,819 # 33333333 <__stack_top+0x23331343>
    1580:	200002b7          	lui	x5,0x20000
    1584:	02f2a623          	sw	x15,44(x5) # 2000002c <__stack_top+0xfffe03c>
    1588:	0110000f          	fence	w,w
    158c:	444447b7          	lui	x15,0x44444
    1590:	44478793          	addi	x15,x15,1092 # 44444444 <__stack_top+0x34442454>
    1594:	200002b7          	lui	x5,0x20000
    1598:	02f2a823          	sw	x15,48(x5) # 20000030 <__stack_top+0xfffe040>
    159c:	0110000f          	fence	w,w
    15a0:	100007b7          	lui	x15,0x10000
    15a4:	22078793          	addi	x15,x15,544 # 10000220 <__bss_end+0x150>
    15a8:	200002b7          	lui	x5,0x20000
    15ac:	10f2a023          	sw	x15,256(x5) # 20000100 <__stack_top+0xfffe110>
    15b0:	0110000f          	fence	w,w
    15b4:	100007b7          	lui	x15,0x10000
    15b8:	2a078793          	addi	x15,x15,672 # 100002a0 <__bss_end+0x1d0>
    15bc:	200002b7          	lui	x5,0x20000
    15c0:	10f2a223          	sw	x15,260(x5) # 20000104 <__stack_top+0xfffe114>
    15c4:	0110000f          	fence	w,w
    15c8:	08000793          	addi	x15,x0,128
    15cc:	200002b7          	lui	x5,0x20000
    15d0:	10f2a423          	sw	x15,264(x5) # 20000108 <__stack_top+0xfffe118>
    15d4:	0110000f          	fence	w,w
    15d8:	00700793          	addi	x15,x0,7
    15dc:	200002b7          	lui	x5,0x20000
    15e0:	10f2aa23          	sw	x15,276(x5) # 20000114 <__stack_top+0xfffe124>
    15e4:	0110000f          	fence	w,w
    15e8:	00800793          	addi	x15,x0,8
    15ec:	200002b7          	lui	x5,0x20000
    15f0:	02f2ae23          	sw	x15,60(x5) # 2000003c <__stack_top+0xfffe04c>
    15f4:	0110000f          	fence	w,w
    15f8:	00200793          	addi	x15,x0,2
    15fc:	200002b7          	lui	x5,0x20000
    1600:	00f2a623          	sw	x15,12(x5) # 2000000c <__stack_top+0xfffe01c>
    1604:	0110000f          	fence	w,w
    1608:	0330000f          	fence	rw,rw
    160c:	00500793          	addi	x15,x0,5
    1610:	200002b7          	lui	x5,0x20000
    1614:	02f2a023          	sw	x15,32(x5) # 20000020 <__stack_top+0xfffe030>
    1618:	0110000f          	fence	w,w
    161c:	004007b7          	lui	x15,0x400
    1620:	fff78793          	addi	x15,x15,-1 # 3fffff <__data_load+0x3fe6db>
    1624:	00f12c23          	sw	x15,24(x2)
    1628:	00000013          	addi	x0,x0,0
    162c:	00000013          	addi	x0,x0,0
    1630:	00000013          	addi	x0,x0,0
    1634:	00000013          	addi	x0,x0,0
    1638:	00000013          	addi	x0,x0,0
    163c:	00000013          	addi	x0,x0,0
    1640:	00000013          	addi	x0,x0,0
    1644:	00000013          	addi	x0,x0,0
    1648:	200002b7          	lui	x5,0x20000
    164c:	0042a783          	lw	x15,4(x5) # 20000004 <__stack_top+0xfffe014>
    1650:	00f12823          	sw	x15,16(x2)
    1654:	01812783          	lw	x15,24(x2)
    1658:	fff78793          	addi	x15,x15,-1
    165c:	00f12c23          	sw	x15,24(x2)
    1660:	01812783          	lw	x15,24(x2)
    1664:	00079863          	bne	x15,x0,1674 <run_ascon_test+0x228>
    1668:	ffe00793          	addi	x15,x0,-2
    166c:	00f12e23          	sw	x15,28(x2)
    1670:	0300006f          	jal	x0,16a0 <run_ascon_test+0x254>
    1674:	01012783          	lw	x15,16(x2)
    1678:	0387f793          	andi	x15,x15,56
    167c:	fa0786e3          	beq	x15,x0,1628 <run_ascon_test+0x1dc>
    1680:	01012783          	lw	x15,16(x2)
    1684:	0307f793          	andi	x15,x15,48
    1688:	00078863          	beq	x15,x0,1698 <run_ascon_test+0x24c>
    168c:	fff00793          	addi	x15,x0,-1
    1690:	00f12e23          	sw	x15,28(x2)
    1694:	00c0006f          	jal	x0,16a0 <run_ascon_test+0x254>
    1698:	0220000f          	fence	r,r
    169c:	00012e23          	sw	x0,28(x2)
    16a0:	100007b7          	lui	x15,0x10000
    16a4:	1c078793          	addi	x15,x15,448 # 100001c0 <__bss_end+0xf0>
    16a8:	01012703          	lw	x14,16(x2)
    16ac:	04e7aa23          	sw	x14,84(x15)
    16b0:	100007b7          	lui	x15,0x10000
    16b4:	1c078793          	addi	x15,x15,448 # 100001c0 <__bss_end+0xf0>
    16b8:	01c12703          	lw	x14,28(x2)
    16bc:	04e7ac23          	sw	x14,88(x15)
    16c0:	01c12783          	lw	x15,28(x2)
    16c4:	00078663          	beq	x15,x0,16d0 <run_ascon_test+0x284>
    16c8:	fff00793          	addi	x15,x0,-1
    16cc:	0080006f          	jal	x0,16d4 <run_ascon_test+0x288>
    16d0:	00000793          	addi	x15,x0,0
    16d4:	00078513          	addi	x10,x15,0
    16d8:	02c12083          	lw	x1,44(x2)
    16dc:	03010113          	addi	x2,x2,48
    16e0:	00008067          	jalr	x0,0(x1)

000016e4 <report>:
    16e4:	fe010113          	addi	x2,x2,-32
    16e8:	00112e23          	sw	x1,28(x2)
    16ec:	00a12623          	sw	x10,12(x2)
    16f0:	00b12423          	sw	x11,8(x2)
    16f4:	00c12223          	sw	x12,4(x2)
    16f8:	00812783          	lw	x15,8(x2)
    16fc:	04079463          	bne	x15,x0,1744 <report+0x60>
    1700:	100007b7          	lui	x15,0x10000
    1704:	02478513          	addi	x10,x15,36 # 10000024 <__data_start+0x24>
    1708:	fffff097          	auipc	x1,0xfffff
    170c:	9d0080e7          	jalr	x1,-1584(x1) # d8 <uart_puts>
    1710:	00c12503          	lw	x10,12(x2)
    1714:	fffff097          	auipc	x1,0xfffff
    1718:	9c4080e7          	jalr	x1,-1596(x1) # d8 <uart_puts>
    171c:	100007b7          	lui	x15,0x10000
    1720:	02c78513          	addi	x10,x15,44 # 1000002c <__data_start+0x2c>
    1724:	fffff097          	auipc	x1,0xfffff
    1728:	9b4080e7          	jalr	x1,-1612(x1) # d8 <uart_puts>
    172c:	00412783          	lw	x15,4(x2)
    1730:	0007a783          	lw	x15,0(x15)
    1734:	00178713          	addi	x14,x15,1
    1738:	00412783          	lw	x15,4(x2)
    173c:	00e7a023          	sw	x14,0(x15)
    1740:	0500006f          	jal	x0,1790 <report+0xac>
    1744:	100007b7          	lui	x15,0x10000
    1748:	03078513          	addi	x10,x15,48 # 10000030 <__data_start+0x30>
    174c:	fffff097          	auipc	x1,0xfffff
    1750:	98c080e7          	jalr	x1,-1652(x1) # d8 <uart_puts>
    1754:	00c12503          	lw	x10,12(x2)
    1758:	fffff097          	auipc	x1,0xfffff
    175c:	980080e7          	jalr	x1,-1664(x1) # d8 <uart_puts>
    1760:	100007b7          	lui	x15,0x10000
    1764:	03878513          	addi	x10,x15,56 # 10000038 <__data_start+0x38>
    1768:	fffff097          	auipc	x1,0xfffff
    176c:	970080e7          	jalr	x1,-1680(x1) # d8 <uart_puts>
    1770:	00812783          	lw	x15,8(x2)
    1774:	00078513          	addi	x10,x15,0
    1778:	fffff097          	auipc	x1,0xfffff
    177c:	a90080e7          	jalr	x1,-1392(x1) # 208 <uart_puthex32>
    1780:	100007b7          	lui	x15,0x10000
    1784:	02c78513          	addi	x10,x15,44 # 1000002c <__data_start+0x2c>
    1788:	fffff097          	auipc	x1,0xfffff
    178c:	950080e7          	jalr	x1,-1712(x1) # d8 <uart_puts>
    1790:	00000013          	addi	x0,x0,0
    1794:	01c12083          	lw	x1,28(x2)
    1798:	02010113          	addi	x2,x2,32
    179c:	00008067          	jalr	x0,0(x1)

000017a0 <main>:
    17a0:	fe010113          	addi	x2,x2,-32
    17a4:	00112e23          	sw	x1,28(x2)
    17a8:	00012423          	sw	x0,8(x2)
    17ac:	00600793          	addi	x15,x0,6
    17b0:	00f12623          	sw	x15,12(x2)
    17b4:	00000613          	addi	x12,x0,0
    17b8:	00000593          	addi	x11,x0,0
    17bc:	36400513          	addi	x10,x0,868
    17c0:	fffff097          	auipc	x1,0xfffff
    17c4:	86c080e7          	jalr	x1,-1940(x1) # 2c <uart_init>
    17c8:	100007b7          	lui	x15,0x10000
    17cc:	04078513          	addi	x10,x15,64 # 10000040 <__data_start+0x40>
    17d0:	fffff097          	auipc	x1,0xfffff
    17d4:	908080e7          	jalr	x1,-1784(x1) # d8 <uart_puts>
    17d8:	fffff097          	auipc	x1,0xfffff
    17dc:	aa8080e7          	jalr	x1,-1368(x1) # 280 <run_uart_test>
    17e0:	00050713          	addi	x14,x10,0
    17e4:	00810793          	addi	x15,x2,8
    17e8:	00078613          	addi	x12,x15,0
    17ec:	00070593          	addi	x11,x14,0 # b0000000 <__stack_top+0x9fffe010>
    17f0:	100007b7          	lui	x15,0x10000
    17f4:	06478513          	addi	x10,x15,100 # 10000064 <__data_start+0x64>
    17f8:	00000097          	auipc	x1,0x0
    17fc:	eec080e7          	jalr	x1,-276(x1) # 16e4 <report>
    1800:	fffff097          	auipc	x1,0xfffff
    1804:	fb0080e7          	jalr	x1,-80(x1) # 7b0 <run_gpio_test>
    1808:	00050713          	addi	x14,x10,0
    180c:	00810793          	addi	x15,x2,8
    1810:	00078613          	addi	x12,x15,0
    1814:	00070593          	addi	x11,x14,0
    1818:	100007b7          	lui	x15,0x10000
    181c:	06c78513          	addi	x10,x15,108 # 1000006c <__data_start+0x6c>
    1820:	00000097          	auipc	x1,0x0
    1824:	ec4080e7          	jalr	x1,-316(x1) # 16e4 <report>
    1828:	fffff097          	auipc	x1,0xfffff
    182c:	328080e7          	jalr	x1,808(x1) # b50 <run_timer_test>
    1830:	00050713          	addi	x14,x10,0
    1834:	00810793          	addi	x15,x2,8
    1838:	00078613          	addi	x12,x15,0
    183c:	00070593          	addi	x11,x14,0
    1840:	100007b7          	lui	x15,0x10000
    1844:	07478513          	addi	x10,x15,116 # 10000074 <__data_start+0x74>
    1848:	00000097          	auipc	x1,0x0
    184c:	e9c080e7          	jalr	x1,-356(x1) # 16e4 <report>
    1850:	fffff097          	auipc	x1,0xfffff
    1854:	79c080e7          	jalr	x1,1948(x1) # fec <run_clint_test>
    1858:	00050713          	addi	x14,x10,0
    185c:	00810793          	addi	x15,x2,8
    1860:	00078613          	addi	x12,x15,0
    1864:	00070593          	addi	x11,x14,0
    1868:	100007b7          	lui	x15,0x10000
    186c:	07c78513          	addi	x10,x15,124 # 1000007c <__data_start+0x7c>
    1870:	00000097          	auipc	x1,0x0
    1874:	e74080e7          	jalr	x1,-396(x1) # 16e4 <report>
    1878:	00000097          	auipc	x1,0x0
    187c:	9e4080e7          	jalr	x1,-1564(x1) # 125c <run_plic_test>
    1880:	00050713          	addi	x14,x10,0
    1884:	00810793          	addi	x15,x2,8
    1888:	00078613          	addi	x12,x15,0
    188c:	00070593          	addi	x11,x14,0
    1890:	100007b7          	lui	x15,0x10000
    1894:	08478513          	addi	x10,x15,132 # 10000084 <__data_start+0x84>
    1898:	00000097          	auipc	x1,0x0
    189c:	e4c080e7          	jalr	x1,-436(x1) # 16e4 <report>
    18a0:	00000097          	auipc	x1,0x0
    18a4:	bac080e7          	jalr	x1,-1108(x1) # 144c <run_ascon_test>
    18a8:	00050713          	addi	x14,x10,0
    18ac:	00810793          	addi	x15,x2,8
    18b0:	00078613          	addi	x12,x15,0
    18b4:	00070593          	addi	x11,x14,0
    18b8:	100007b7          	lui	x15,0x10000
    18bc:	08c78513          	addi	x10,x15,140 # 1000008c <__data_start+0x8c>
    18c0:	00000097          	auipc	x1,0x0
    18c4:	e24080e7          	jalr	x1,-476(x1) # 16e4 <report>
    18c8:	00812783          	lw	x15,8(x2)
    18cc:	00c12703          	lw	x14,12(x2)
    18d0:	00f71c63          	bne	x14,x15,18e8 <main+0x148>
    18d4:	100007b7          	lui	x15,0x10000
    18d8:	09478513          	addi	x10,x15,148 # 10000094 <__data_start+0x94>
    18dc:	ffffe097          	auipc	x1,0xffffe
    18e0:	7fc080e7          	jalr	x1,2044(x1) # d8 <uart_puts>
    18e4:	0380006f          	jal	x0,191c <main+0x17c>
    18e8:	100007b7          	lui	x15,0x10000
    18ec:	0a478513          	addi	x10,x15,164 # 100000a4 <__data_start+0xa4>
    18f0:	ffffe097          	auipc	x1,0xffffe
    18f4:	7e8080e7          	jalr	x1,2024(x1) # d8 <uart_puts>
    18f8:	00812783          	lw	x15,8(x2)
    18fc:	0ff7f793          	andi	x15,x15,255
    1900:	00078513          	addi	x10,x15,0
    1904:	fffff097          	auipc	x1,0xfffff
    1908:	890080e7          	jalr	x1,-1904(x1) # 194 <uart_puthex8>
    190c:	100007b7          	lui	x15,0x10000
    1910:	0b078513          	addi	x10,x15,176 # 100000b0 <__data_start+0xb0>
    1914:	ffffe097          	auipc	x1,0xffffe
    1918:	7c4080e7          	jalr	x1,1988(x1) # d8 <uart_puts>
    191c:	00000013          	addi	x0,x0,0
    1920:	ffdff06f          	jal	x0,191c <main+0x17c>
