
test_gpio.elf:     file format elf32-littleriscv


Disassembly of section .text:

00000000 <_start>:
   0:	10002117          	auipc	x2,0x10002
   4:	ff010113          	addi	x2,x2,-16 # 10001ff0 <__stack_top>
   8:	00000013          	addi	x0,x0,0
   c:	00000013          	addi	x0,x0,0
  10:	00000297          	auipc	x5,0x0
  14:	06c28293          	addi	x5,x5,108 # 7c <trap_handler>
  18:	30529073          	csrrw	x0,mtvec,x5
  1c:	00000297          	auipc	x5,0x0
  20:	79028293          	addi	x5,x5,1936 # 7ac <__data_load>
  24:	10000317          	auipc	x6,0x10000
  28:	fdc30313          	addi	x6,x6,-36 # 10000000 <__data_start>
  2c:	10000397          	auipc	x7,0x10000
  30:	01038393          	addi	x7,x7,16 # 1000003c <gpio_irq_flag>
  34:	00730e63          	beq	x6,x7,50 <_copy_done>

00000038 <_copy_data>:
  38:	00735c63          	bge	x6,x7,50 <_copy_done>
  3c:	0002ae03          	lw	x28,0(x5)
  40:	01c32023          	sw	x28,0(x6)
  44:	00428293          	addi	x5,x5,4
  48:	00430313          	addi	x6,x6,4
  4c:	fedff06f          	jal	x0,38 <_copy_data>

00000050 <_copy_done>:
  50:	10000297          	auipc	x5,0x10000
  54:	fec28293          	addi	x5,x5,-20 # 1000003c <gpio_irq_flag>
  58:	10000317          	auipc	x6,0x10000
  5c:	fe830313          	addi	x6,x6,-24 # 10000040 <__bss_end>

00000060 <_clear_bss>:
  60:	0062d863          	bge	x5,x6,70 <_bss_done>
  64:	0002a023          	sw	x0,0(x5)
  68:	00428293          	addi	x5,x5,4
  6c:	ff5ff06f          	jal	x0,60 <_clear_bss>

00000070 <_bss_done>:
  70:	00000097          	auipc	x1,0x0
  74:	6d4080e7          	jalr	x1,1748(x1) # 744 <main>

00000078 <_halt>:
  78:	0000006f          	jal	x0,78 <_halt>

0000007c <trap_handler>:
  7c:	0000006f          	jal	x0,7c <trap_handler>

00000080 <uart_init>:
  80:	ff010113          	addi	x2,x2,-16
  84:	00a12623          	sw	x10,12(x2)
  88:	00058793          	addi	x15,x11,0
  8c:	00060713          	addi	x14,x12,0
  90:	00f105a3          	sb	x15,11(x2)
  94:	00070793          	addi	x15,x14,0
  98:	00f10523          	sb	x15,10(x2)
  9c:	500007b7          	lui	x15,0x50000
  a0:	01078793          	addi	x15,x15,16 # 50000010 <__stack_top+0x3fffe020>
  a4:	00c12703          	lw	x14,12(x2)
  a8:	00e7a023          	sw	x14,0(x15)
  ac:	0110000f          	fence	w,w
  b0:	00a14783          	lbu	x15,10(x2)
  b4:	00179793          	slli	x15,x15,0x1
  b8:	0027f693          	andi	x13,x15,2
  bc:	00b14783          	lbu	x15,11(x2)
  c0:	0017f713          	andi	x14,x15,1
  c4:	500007b7          	lui	x15,0x50000
  c8:	00c78793          	addi	x15,x15,12 # 5000000c <__stack_top+0x3fffe01c>
  cc:	00e6e733          	or	x14,x13,x14
  d0:	00e7a023          	sw	x14,0(x15)
  d4:	0110000f          	fence	w,w
  d8:	00000013          	addi	x0,x0,0
  dc:	01010113          	addi	x2,x2,16
  e0:	00008067          	jalr	x0,0(x1)

000000e4 <uart_putc>:
  e4:	ff010113          	addi	x2,x2,-16
  e8:	00050793          	addi	x15,x10,0
  ec:	00f107a3          	sb	x15,15(x2)
  f0:	00000013          	addi	x0,x0,0
  f4:	500007b7          	lui	x15,0x50000
  f8:	00878793          	addi	x15,x15,8 # 50000008 <__stack_top+0x3fffe018>
  fc:	0007a783          	lw	x15,0(x15)
 100:	0027f793          	andi	x15,x15,2
 104:	fe0798e3          	bne	x15,x0,f4 <uart_putc+0x10>
 108:	500007b7          	lui	x15,0x50000
 10c:	00f14703          	lbu	x14,15(x2)
 110:	00e7a023          	sw	x14,0(x15) # 50000000 <__stack_top+0x3fffe010>
 114:	0110000f          	fence	w,w
 118:	00000013          	addi	x0,x0,0
 11c:	01010113          	addi	x2,x2,16
 120:	00008067          	jalr	x0,0(x1)

00000124 <uart_puts>:
 124:	fe010113          	addi	x2,x2,-32
 128:	00112e23          	sw	x1,28(x2)
 12c:	00a12623          	sw	x10,12(x2)
 130:	0200006f          	jal	x0,150 <uart_puts+0x2c>
 134:	00c12783          	lw	x15,12(x2)
 138:	00178713          	addi	x14,x15,1
 13c:	00e12623          	sw	x14,12(x2)
 140:	0007c783          	lbu	x15,0(x15)
 144:	00078513          	addi	x10,x15,0
 148:	00000097          	auipc	x1,0x0
 14c:	f9c080e7          	jalr	x1,-100(x1) # e4 <uart_putc>
 150:	00c12783          	lw	x15,12(x2)
 154:	0007c783          	lbu	x15,0(x15)
 158:	fc079ee3          	bne	x15,x0,134 <uart_puts+0x10>
 15c:	00000013          	addi	x0,x0,0
 160:	500007b7          	lui	x15,0x50000
 164:	00878793          	addi	x15,x15,8 # 50000008 <__stack_top+0x3fffe018>
 168:	0007a783          	lw	x15,0(x15)
 16c:	0017f793          	andi	x15,x15,1
 170:	fe0788e3          	beq	x15,x0,160 <uart_puts+0x3c>
 174:	00000013          	addi	x0,x0,0
 178:	00000013          	addi	x0,x0,0
 17c:	01c12083          	lw	x1,28(x2)
 180:	02010113          	addi	x2,x2,32
 184:	00008067          	jalr	x0,0(x1)

00000188 <uart_puthex8>:
 188:	fd010113          	addi	x2,x2,-48
 18c:	02112623          	sw	x1,44(x2)
 190:	00050793          	addi	x15,x10,0
 194:	00f107a3          	sb	x15,15(x2)
 198:	100007b7          	lui	x15,0x10000
 19c:	00078793          	addi	x15,x15,0 # 10000000 <__data_start>
 1a0:	00f12e23          	sw	x15,28(x2)
 1a4:	00f14783          	lbu	x15,15(x2)
 1a8:	0047d793          	srli	x15,x15,0x4
 1ac:	0ff7f793          	andi	x15,x15,255
 1b0:	00f7f793          	andi	x15,x15,15
 1b4:	01c12703          	lw	x14,28(x2)
 1b8:	00f707b3          	add	x15,x14,x15
 1bc:	0007c783          	lbu	x15,0(x15)
 1c0:	00078513          	addi	x10,x15,0
 1c4:	00000097          	auipc	x1,0x0
 1c8:	f20080e7          	jalr	x1,-224(x1) # e4 <uart_putc>
 1cc:	00f14783          	lbu	x15,15(x2)
 1d0:	00f7f793          	andi	x15,x15,15
 1d4:	01c12703          	lw	x14,28(x2)
 1d8:	00f707b3          	add	x15,x14,x15
 1dc:	0007c783          	lbu	x15,0(x15)
 1e0:	00078513          	addi	x10,x15,0
 1e4:	00000097          	auipc	x1,0x0
 1e8:	f00080e7          	jalr	x1,-256(x1) # e4 <uart_putc>
 1ec:	00000013          	addi	x0,x0,0
 1f0:	02c12083          	lw	x1,44(x2)
 1f4:	03010113          	addi	x2,x2,48
 1f8:	00008067          	jalr	x0,0(x1)

000001fc <uart_puthex32>:
 1fc:	fe010113          	addi	x2,x2,-32
 200:	00112e23          	sw	x1,28(x2)
 204:	00a12623          	sw	x10,12(x2)
 208:	00c12783          	lw	x15,12(x2)
 20c:	0187d793          	srli	x15,x15,0x18
 210:	0ff7f793          	andi	x15,x15,255
 214:	00078513          	addi	x10,x15,0
 218:	00000097          	auipc	x1,0x0
 21c:	f70080e7          	jalr	x1,-144(x1) # 188 <uart_puthex8>
 220:	00c12783          	lw	x15,12(x2)
 224:	0107d793          	srli	x15,x15,0x10
 228:	0ff7f793          	andi	x15,x15,255
 22c:	00078513          	addi	x10,x15,0
 230:	00000097          	auipc	x1,0x0
 234:	f58080e7          	jalr	x1,-168(x1) # 188 <uart_puthex8>
 238:	00c12783          	lw	x15,12(x2)
 23c:	0087d793          	srli	x15,x15,0x8
 240:	0ff7f793          	andi	x15,x15,255
 244:	00078513          	addi	x10,x15,0
 248:	00000097          	auipc	x1,0x0
 24c:	f40080e7          	jalr	x1,-192(x1) # 188 <uart_puthex8>
 250:	00c12783          	lw	x15,12(x2)
 254:	0ff7f793          	andi	x15,x15,255
 258:	00078513          	addi	x10,x15,0
 25c:	00000097          	auipc	x1,0x0
 260:	f2c080e7          	jalr	x1,-212(x1) # 188 <uart_puthex8>
 264:	00000013          	addi	x0,x0,0
 268:	01c12083          	lw	x1,28(x2)
 26c:	02010113          	addi	x2,x2,32
 270:	00008067          	jalr	x0,0(x1)

00000274 <gpio_set_dir>:
 274:	ff010113          	addi	x2,x2,-16
 278:	00a12623          	sw	x10,12(x2)
 27c:	500107b7          	lui	x15,0x50010
 280:	00c12703          	lw	x14,12(x2)
 284:	00e7a023          	sw	x14,0(x15) # 50010000 <__stack_top+0x4000e010>
 288:	0110000f          	fence	w,w
 28c:	00000013          	addi	x0,x0,0
 290:	01010113          	addi	x2,x2,16
 294:	00008067          	jalr	x0,0(x1)

00000298 <gpio_write>:
 298:	fe010113          	addi	x2,x2,-32
 29c:	00a12623          	sw	x10,12(x2)
 2a0:	00b12423          	sw	x11,8(x2)
 2a4:	500107b7          	lui	x15,0x50010
 2a8:	00478793          	addi	x15,x15,4 # 50010004 <__stack_top+0x4000e014>
 2ac:	0007a783          	lw	x15,0(x15)
 2b0:	00f12e23          	sw	x15,28(x2)
 2b4:	00812783          	lw	x15,8(x2)
 2b8:	fff7c713          	xori	x14,x15,-1
 2bc:	01c12783          	lw	x15,28(x2)
 2c0:	00f776b3          	and	x13,x14,x15
 2c4:	00c12703          	lw	x14,12(x2)
 2c8:	00812783          	lw	x15,8(x2)
 2cc:	00f77733          	and	x14,x14,x15
 2d0:	500107b7          	lui	x15,0x50010
 2d4:	00478793          	addi	x15,x15,4 # 50010004 <__stack_top+0x4000e014>
 2d8:	00e6e733          	or	x14,x13,x14
 2dc:	00e7a023          	sw	x14,0(x15)
 2e0:	0110000f          	fence	w,w
 2e4:	00000013          	addi	x0,x0,0
 2e8:	02010113          	addi	x2,x2,32
 2ec:	00008067          	jalr	x0,0(x1)

000002f0 <gpio_read>:
 2f0:	500107b7          	lui	x15,0x50010
 2f4:	00878793          	addi	x15,x15,8 # 50010008 <__stack_top+0x4000e018>
 2f8:	0007a783          	lw	x15,0(x15)
 2fc:	00078513          	addi	x10,x15,0
 300:	00008067          	jalr	x0,0(x1)

00000304 <gpio_irq_enable>:
 304:	ff010113          	addi	x2,x2,-16
 308:	00a12623          	sw	x10,12(x2)
 30c:	00b12423          	sw	x11,8(x2)
 310:	00c12223          	sw	x12,4(x2)
 314:	00812783          	lw	x15,8(x2)
 318:	02078463          	beq	x15,x0,340 <gpio_irq_enable+0x3c>
 31c:	500107b7          	lui	x15,0x50010
 320:	01478793          	addi	x15,x15,20 # 50010014 <__stack_top+0x4000e024>
 324:	0007a683          	lw	x13,0(x15)
 328:	500107b7          	lui	x15,0x50010
 32c:	01478793          	addi	x15,x15,20 # 50010014 <__stack_top+0x4000e024>
 330:	00c12703          	lw	x14,12(x2)
 334:	00e6e733          	or	x14,x13,x14
 338:	00e7a023          	sw	x14,0(x15)
 33c:	0280006f          	jal	x0,364 <gpio_irq_enable+0x60>
 340:	500107b7          	lui	x15,0x50010
 344:	01478793          	addi	x15,x15,20 # 50010014 <__stack_top+0x4000e024>
 348:	0007a683          	lw	x13,0(x15)
 34c:	00c12783          	lw	x15,12(x2)
 350:	fff7c713          	xori	x14,x15,-1
 354:	500107b7          	lui	x15,0x50010
 358:	01478793          	addi	x15,x15,20 # 50010014 <__stack_top+0x4000e024>
 35c:	00e6f733          	and	x14,x13,x14
 360:	00e7a023          	sw	x14,0(x15)
 364:	00412783          	lw	x15,4(x2)
 368:	02078463          	beq	x15,x0,390 <gpio_irq_enable+0x8c>
 36c:	500107b7          	lui	x15,0x50010
 370:	01878793          	addi	x15,x15,24 # 50010018 <__stack_top+0x4000e028>
 374:	0007a683          	lw	x13,0(x15)
 378:	500107b7          	lui	x15,0x50010
 37c:	01878793          	addi	x15,x15,24 # 50010018 <__stack_top+0x4000e028>
 380:	00c12703          	lw	x14,12(x2)
 384:	00e6e733          	or	x14,x13,x14
 388:	00e7a023          	sw	x14,0(x15)
 38c:	0280006f          	jal	x0,3b4 <gpio_irq_enable+0xb0>
 390:	500107b7          	lui	x15,0x50010
 394:	01878793          	addi	x15,x15,24 # 50010018 <__stack_top+0x4000e028>
 398:	0007a683          	lw	x13,0(x15)
 39c:	00c12783          	lw	x15,12(x2)
 3a0:	fff7c713          	xori	x14,x15,-1
 3a4:	500107b7          	lui	x15,0x50010
 3a8:	01878793          	addi	x15,x15,24 # 50010018 <__stack_top+0x4000e028>
 3ac:	00e6f733          	and	x14,x13,x14
 3b0:	00e7a023          	sw	x14,0(x15)
 3b4:	500107b7          	lui	x15,0x50010
 3b8:	00c78793          	addi	x15,x15,12 # 5001000c <__stack_top+0x4000e01c>
 3bc:	0007a683          	lw	x13,0(x15)
 3c0:	500107b7          	lui	x15,0x50010
 3c4:	00c78793          	addi	x15,x15,12 # 5001000c <__stack_top+0x4000e01c>
 3c8:	00c12703          	lw	x14,12(x2)
 3cc:	00e6e733          	or	x14,x13,x14
 3d0:	00e7a023          	sw	x14,0(x15)
 3d4:	0110000f          	fence	w,w
 3d8:	00000013          	addi	x0,x0,0
 3dc:	01010113          	addi	x2,x2,16
 3e0:	00008067          	jalr	x0,0(x1)

000003e4 <gpio_irq_clear>:
 3e4:	ff010113          	addi	x2,x2,-16
 3e8:	00a12623          	sw	x10,12(x2)
 3ec:	500107b7          	lui	x15,0x50010
 3f0:	01078793          	addi	x15,x15,16 # 50010010 <__stack_top+0x4000e020>
 3f4:	00c12703          	lw	x14,12(x2)
 3f8:	00e7a023          	sw	x14,0(x15)
 3fc:	0110000f          	fence	w,w
 400:	00000013          	addi	x0,x0,0
 404:	01010113          	addi	x2,x2,16
 408:	00008067          	jalr	x0,0(x1)

0000040c <gpio_irq_status>:
 40c:	500107b7          	lui	x15,0x50010
 410:	01078793          	addi	x15,x15,16 # 50010010 <__stack_top+0x4000e020>
 414:	0007a783          	lw	x15,0(x15)
 418:	00078513          	addi	x10,x15,0
 41c:	00008067          	jalr	x0,0(x1)

00000420 <plic_set_priority>:
 420:	ff010113          	addi	x2,x2,-16
 424:	00a12623          	sw	x10,12(x2)
 428:	00b12423          	sw	x11,8(x2)
 42c:	00c12703          	lw	x14,12(x2)
 430:	140107b7          	lui	x15,0x14010
 434:	00f707b3          	add	x15,x14,x15
 438:	00279793          	slli	x15,x15,0x2
 43c:	00078713          	addi	x14,x15,0 # 14010000 <__stack_top+0x400e010>
 440:	00812783          	lw	x15,8(x2)
 444:	00f72023          	sw	x15,0(x14)
 448:	0110000f          	fence	w,w
 44c:	00000013          	addi	x0,x0,0
 450:	01010113          	addi	x2,x2,16
 454:	00008067          	jalr	x0,0(x1)

00000458 <plic_enable>:
 458:	ff010113          	addi	x2,x2,-16
 45c:	00a12623          	sw	x10,12(x2)
 460:	500407b7          	lui	x15,0x50040
 464:	10078793          	addi	x15,x15,256 # 50040100 <__stack_top+0x4003e110>
 468:	0007a683          	lw	x13,0(x15)
 46c:	00c12783          	lw	x15,12(x2)
 470:	00100713          	addi	x14,x0,1
 474:	00f71733          	sll	x14,x14,x15
 478:	500407b7          	lui	x15,0x50040
 47c:	10078793          	addi	x15,x15,256 # 50040100 <__stack_top+0x4003e110>
 480:	00e6e733          	or	x14,x13,x14
 484:	00e7a023          	sw	x14,0(x15)
 488:	0110000f          	fence	w,w
 48c:	00000013          	addi	x0,x0,0
 490:	01010113          	addi	x2,x2,16
 494:	00008067          	jalr	x0,0(x1)

00000498 <plic_set_threshold>:
 498:	ff010113          	addi	x2,x2,-16
 49c:	00a12623          	sw	x10,12(x2)
 4a0:	500407b7          	lui	x15,0x50040
 4a4:	20078793          	addi	x15,x15,512 # 50040200 <__stack_top+0x4003e210>
 4a8:	00c12703          	lw	x14,12(x2)
 4ac:	00e7a023          	sw	x14,0(x15)
 4b0:	0110000f          	fence	w,w
 4b4:	00000013          	addi	x0,x0,0
 4b8:	01010113          	addi	x2,x2,16
 4bc:	00008067          	jalr	x0,0(x1)

000004c0 <plic_claim>:
 4c0:	500407b7          	lui	x15,0x50040
 4c4:	20478793          	addi	x15,x15,516 # 50040204 <__stack_top+0x4003e214>
 4c8:	0007a783          	lw	x15,0(x15)
 4cc:	00078513          	addi	x10,x15,0
 4d0:	00008067          	jalr	x0,0(x1)

000004d4 <plic_complete>:
 4d4:	ff010113          	addi	x2,x2,-16
 4d8:	00a12623          	sw	x10,12(x2)
 4dc:	500407b7          	lui	x15,0x50040
 4e0:	20478793          	addi	x15,x15,516 # 50040204 <__stack_top+0x4003e214>
 4e4:	00c12703          	lw	x14,12(x2)
 4e8:	00e7a023          	sw	x14,0(x15)
 4ec:	0110000f          	fence	w,w
 4f0:	00000013          	addi	x0,x0,0
 4f4:	01010113          	addi	x2,x2,16
 4f8:	00008067          	jalr	x0,0(x1)

000004fc <irq_set_mtvec>:
 4fc:	ff010113          	addi	x2,x2,-16
 500:	00a12623          	sw	x10,12(x2)
 504:	00c12783          	lw	x15,12(x2)
 508:	30579073          	csrrw	x0,mtvec,x15
 50c:	00000013          	addi	x0,x0,0
 510:	01010113          	addi	x2,x2,16
 514:	00008067          	jalr	x0,0(x1)

00000518 <irq_enable_global>:
 518:	30046073          	csrrsi	x0,mstatus,8
 51c:	00000013          	addi	x0,x0,0
 520:	00008067          	jalr	x0,0(x1)

00000524 <irq_disable_global>:
 524:	30047073          	csrrci	x0,mstatus,8
 528:	00000013          	addi	x0,x0,0
 52c:	00008067          	jalr	x0,0(x1)

00000530 <irq_enable_external>:
 530:	000012b7          	lui	x5,0x1
 534:	80028293          	addi	x5,x5,-2048 # 800 <__data_load+0x54>
 538:	3042a073          	csrrs	x0,mie,x5
 53c:	00000013          	addi	x0,x0,0
 540:	00008067          	jalr	x0,0(x1)

00000544 <irq_mcause>:
 544:	ff010113          	addi	x2,x2,-16
 548:	342027f3          	csrrs	x15,mcause,x0
 54c:	00f12623          	sw	x15,12(x2)
 550:	00c12783          	lw	x15,12(x2)
 554:	00078513          	addi	x10,x15,0
 558:	01010113          	addi	x2,x2,16
 55c:	00008067          	jalr	x0,0(x1)

00000560 <gpio_isr>:
 560:	fb010113          	addi	x2,x2,-80
 564:	04112623          	sw	x1,76(x2)
 568:	04512423          	sw	x5,72(x2)
 56c:	04612223          	sw	x6,68(x2)
 570:	04712023          	sw	x7,64(x2)
 574:	02a12e23          	sw	x10,60(x2)
 578:	02b12c23          	sw	x11,56(x2)
 57c:	02c12a23          	sw	x12,52(x2)
 580:	02d12823          	sw	x13,48(x2)
 584:	02e12623          	sw	x14,44(x2)
 588:	02f12423          	sw	x15,40(x2)
 58c:	03012223          	sw	x16,36(x2)
 590:	03112023          	sw	x17,32(x2)
 594:	01c12e23          	sw	x28,28(x2)
 598:	01d12c23          	sw	x29,24(x2)
 59c:	01e12a23          	sw	x30,20(x2)
 5a0:	01f12823          	sw	x31,16(x2)
 5a4:	00000097          	auipc	x1,0x0
 5a8:	fa0080e7          	jalr	x1,-96(x1) # 544 <irq_mcause>
 5ac:	00a12623          	sw	x10,12(x2)
 5b0:	00c12783          	lw	x15,12(x2)
 5b4:	0ff7f713          	andi	x14,x15,255
 5b8:	00b00793          	addi	x15,x0,11
 5bc:	04f71663          	bne	x14,x15,608 <gpio_isr+0xa8>
 5c0:	00000097          	auipc	x1,0x0
 5c4:	f00080e7          	jalr	x1,-256(x1) # 4c0 <plic_claim>
 5c8:	00a12423          	sw	x10,8(x2)
 5cc:	00812703          	lw	x14,8(x2)
 5d0:	00400793          	addi	x15,x0,4
 5d4:	02f71463          	bne	x14,x15,5fc <gpio_isr+0x9c>
 5d8:	00000097          	auipc	x1,0x0
 5dc:	e34080e7          	jalr	x1,-460(x1) # 40c <gpio_irq_status>
 5e0:	00050793          	addi	x15,x10,0
 5e4:	00078513          	addi	x10,x15,0
 5e8:	00000097          	auipc	x1,0x0
 5ec:	dfc080e7          	jalr	x1,-516(x1) # 3e4 <gpio_irq_clear>
 5f0:	100007b7          	lui	x15,0x10000
 5f4:	00100713          	addi	x14,x0,1
 5f8:	02e7ae23          	sw	x14,60(x15) # 1000003c <gpio_irq_flag>
 5fc:	00812503          	lw	x10,8(x2)
 600:	00000097          	auipc	x1,0x0
 604:	ed4080e7          	jalr	x1,-300(x1) # 4d4 <plic_complete>
 608:	00000013          	addi	x0,x0,0
 60c:	04c12083          	lw	x1,76(x2)
 610:	04812283          	lw	x5,72(x2)
 614:	04412303          	lw	x6,68(x2)
 618:	04012383          	lw	x7,64(x2)
 61c:	03c12503          	lw	x10,60(x2)
 620:	03812583          	lw	x11,56(x2)
 624:	03412603          	lw	x12,52(x2)
 628:	03012683          	lw	x13,48(x2)
 62c:	02c12703          	lw	x14,44(x2)
 630:	02812783          	lw	x15,40(x2)
 634:	02412803          	lw	x16,36(x2)
 638:	02012883          	lw	x17,32(x2)
 63c:	01c12e03          	lw	x28,28(x2)
 640:	01812e83          	lw	x29,24(x2)
 644:	01412f03          	lw	x30,20(x2)
 648:	01012f83          	lw	x31,16(x2)
 64c:	05010113          	addi	x2,x2,80
 650:	30200073          	mret

00000654 <run_gpio_test>:
 654:	fe010113          	addi	x2,x2,-32
 658:	00112e23          	sw	x1,28(x2)
 65c:	00000613          	addi	x12,x0,0
 660:	00000593          	addi	x11,x0,0
 664:	36400513          	addi	x10,x0,868
 668:	00000097          	auipc	x1,0x0
 66c:	a18080e7          	jalr	x1,-1512(x1) # 80 <uart_init>
 670:	0ff00513          	addi	x10,x0,255
 674:	00000097          	auipc	x1,0x0
 678:	c00080e7          	jalr	x1,-1024(x1) # 274 <gpio_set_dir>
 67c:	0ff00593          	addi	x11,x0,255
 680:	0aa00513          	addi	x10,x0,170
 684:	00000097          	auipc	x1,0x0
 688:	c14080e7          	jalr	x1,-1004(x1) # 298 <gpio_write>
 68c:	00100613          	addi	x12,x0,1
 690:	00100593          	addi	x11,x0,1
 694:	10000513          	addi	x10,x0,256
 698:	00000097          	auipc	x1,0x0
 69c:	c6c080e7          	jalr	x1,-916(x1) # 304 <gpio_irq_enable>
 6a0:	00000513          	addi	x10,x0,0
 6a4:	00000097          	auipc	x1,0x0
 6a8:	df4080e7          	jalr	x1,-524(x1) # 498 <plic_set_threshold>
 6ac:	00100593          	addi	x11,x0,1
 6b0:	00400513          	addi	x10,x0,4
 6b4:	00000097          	auipc	x1,0x0
 6b8:	d6c080e7          	jalr	x1,-660(x1) # 420 <plic_set_priority>
 6bc:	00400513          	addi	x10,x0,4
 6c0:	00000097          	auipc	x1,0x0
 6c4:	d98080e7          	jalr	x1,-616(x1) # 458 <plic_enable>
 6c8:	000007b7          	lui	x15,0x0
 6cc:	56078513          	addi	x10,x15,1376 # 560 <gpio_isr>
 6d0:	00000097          	auipc	x1,0x0
 6d4:	e2c080e7          	jalr	x1,-468(x1) # 4fc <irq_set_mtvec>
 6d8:	00000097          	auipc	x1,0x0
 6dc:	e58080e7          	jalr	x1,-424(x1) # 530 <irq_enable_external>
 6e0:	00000097          	auipc	x1,0x0
 6e4:	e38080e7          	jalr	x1,-456(x1) # 518 <irq_enable_global>
 6e8:	000807b7          	lui	x15,0x80
 6ec:	fff78793          	addi	x15,x15,-1 # 7ffff <__data_load+0x7f853>
 6f0:	00f12623          	sw	x15,12(x2)
 6f4:	0200006f          	jal	x0,714 <run_gpio_test+0xc0>
 6f8:	00c12783          	lw	x15,12(x2)
 6fc:	fff78793          	addi	x15,x15,-1
 700:	00f12623          	sw	x15,12(x2)
 704:	00c12783          	lw	x15,12(x2)
 708:	00079663          	bne	x15,x0,714 <run_gpio_test+0xc0>
 70c:	fff00793          	addi	x15,x0,-1
 710:	0240006f          	jal	x0,734 <run_gpio_test+0xe0>
 714:	100007b7          	lui	x15,0x10000
 718:	03c7a783          	lw	x15,60(x15) # 1000003c <gpio_irq_flag>
 71c:	fc078ee3          	beq	x15,x0,6f8 <run_gpio_test+0xa4>
 720:	00000097          	auipc	x1,0x0
 724:	e04080e7          	jalr	x1,-508(x1) # 524 <irq_disable_global>
 728:	00000097          	auipc	x1,0x0
 72c:	bc8080e7          	jalr	x1,-1080(x1) # 2f0 <gpio_read>
 730:	00000793          	addi	x15,x0,0
 734:	00078513          	addi	x10,x15,0
 738:	01c12083          	lw	x1,28(x2)
 73c:	02010113          	addi	x2,x2,32
 740:	00008067          	jalr	x0,0(x1)

00000744 <main>:
 744:	fe010113          	addi	x2,x2,-32
 748:	00112e23          	sw	x1,28(x2)
 74c:	00000097          	auipc	x1,0x0
 750:	f08080e7          	jalr	x1,-248(x1) # 654 <run_gpio_test>
 754:	00a12623          	sw	x10,12(x2)
 758:	00c12783          	lw	x15,12(x2)
 75c:	00079c63          	bne	x15,x0,774 <main+0x30>
 760:	100007b7          	lui	x15,0x10000
 764:	01478513          	addi	x10,x15,20 # 10000014 <__data_start+0x14>
 768:	00000097          	auipc	x1,0x0
 76c:	9bc080e7          	jalr	x1,-1604(x1) # 124 <uart_puts>
 770:	0340006f          	jal	x0,7a4 <main+0x60>
 774:	100007b7          	lui	x15,0x10000
 778:	02478513          	addi	x10,x15,36 # 10000024 <__data_start+0x24>
 77c:	00000097          	auipc	x1,0x0
 780:	9a8080e7          	jalr	x1,-1624(x1) # 124 <uart_puts>
 784:	00c12783          	lw	x15,12(x2)
 788:	00078513          	addi	x10,x15,0
 78c:	00000097          	auipc	x1,0x0
 790:	a70080e7          	jalr	x1,-1424(x1) # 1fc <uart_puthex32>
 794:	100007b7          	lui	x15,0x10000
 798:	03878513          	addi	x10,x15,56 # 10000038 <__data_start+0x38>
 79c:	00000097          	auipc	x1,0x0
 7a0:	988080e7          	jalr	x1,-1656(x1) # 124 <uart_puts>
 7a4:	00000013          	addi	x0,x0,0
 7a8:	ffdff06f          	jal	x0,7a4 <main+0x60>
