
test_timer.elf:     file format elf32-littleriscv


Disassembly of section .text:

00000000 <_start>:
   0:	10002117          	auipc	x2,0x10002
   4:	ff010113          	addi	x2,x2,-16 # 10001ff0 <__stack_top>
   8:	00000013          	addi	x0,x0,0
   c:	00000013          	addi	x0,x0,0
  10:	00000297          	auipc	x5,0x0
  14:	01828293          	addi	x5,x5,24 # 28 <trap_handler>
  18:	30529073          	csrrw	x0,mtvec,x5
  1c:	00001097          	auipc	x1,0x1
  20:	84c080e7          	jalr	x1,-1972(x1) # 868 <main>

00000024 <_halt>:
  24:	0000006f          	jal	x0,24 <_halt>

00000028 <trap_handler>:
  28:	0000006f          	jal	x0,28 <trap_handler>

0000002c <uart_init>:
  2c:	ff010113          	addi	x2,x2,-16
  30:	00050793          	addi	x15,x10,0
  34:	00058693          	addi	x13,x11,0
  38:	00060713          	addi	x14,x12,0
  3c:	00f11723          	sh	x15,14(x2)
  40:	00068793          	addi	x15,x13,0
  44:	00f106a3          	sb	x15,13(x2)
  48:	00070793          	addi	x15,x14,0
  4c:	00f10623          	sb	x15,12(x2)
  50:	500007b7          	lui	x15,0x50000
  54:	01078793          	addi	x15,x15,16 # 50000010 <__stack_top+0x3fffe020>
  58:	00e15703          	lhu	x14,14(x2)
  5c:	00e7a023          	sw	x14,0(x15)
  60:	0110000f          	fence	w,w
  64:	00c14783          	lbu	x15,12(x2)
  68:	00179793          	slli	x15,x15,0x1
  6c:	0027f693          	andi	x13,x15,2
  70:	00d14783          	lbu	x15,13(x2)
  74:	0017f713          	andi	x14,x15,1
  78:	500007b7          	lui	x15,0x50000
  7c:	00c78793          	addi	x15,x15,12 # 5000000c <__stack_top+0x3fffe01c>
  80:	00e6e733          	or	x14,x13,x14
  84:	00e7a023          	sw	x14,0(x15)
  88:	0110000f          	fence	w,w
  8c:	00000013          	addi	x0,x0,0
  90:	01010113          	addi	x2,x2,16
  94:	00008067          	jalr	x0,0(x1)

00000098 <uart_putc>:
  98:	ff010113          	addi	x2,x2,-16
  9c:	00050793          	addi	x15,x10,0
  a0:	00f107a3          	sb	x15,15(x2)
  a4:	00000013          	addi	x0,x0,0
  a8:	500007b7          	lui	x15,0x50000
  ac:	00878793          	addi	x15,x15,8 # 50000008 <__stack_top+0x3fffe018>
  b0:	0007a783          	lw	x15,0(x15)
  b4:	0027f793          	andi	x15,x15,2
  b8:	fe0798e3          	bne	x15,x0,a8 <uart_putc+0x10>
  bc:	500007b7          	lui	x15,0x50000
  c0:	00f14703          	lbu	x14,15(x2)
  c4:	00e7a023          	sw	x14,0(x15) # 50000000 <__stack_top+0x3fffe010>
  c8:	0110000f          	fence	w,w
  cc:	00000013          	addi	x0,x0,0
  d0:	01010113          	addi	x2,x2,16
  d4:	00008067          	jalr	x0,0(x1)

000000d8 <uart_puts>:
  d8:	fe010113          	addi	x2,x2,-32
  dc:	00112e23          	sw	x1,28(x2)
  e0:	00a12623          	sw	x10,12(x2)
  e4:	0200006f          	jal	x0,104 <uart_puts+0x2c>
  e8:	00c12783          	lw	x15,12(x2)
  ec:	00178713          	addi	x14,x15,1
  f0:	00e12623          	sw	x14,12(x2)
  f4:	0007c783          	lbu	x15,0(x15)
  f8:	00078513          	addi	x10,x15,0
  fc:	00000097          	auipc	x1,0x0
 100:	f9c080e7          	jalr	x1,-100(x1) # 98 <uart_putc>
 104:	00c12783          	lw	x15,12(x2)
 108:	0007c783          	lbu	x15,0(x15)
 10c:	fc079ee3          	bne	x15,x0,e8 <uart_puts+0x10>
 110:	00000013          	addi	x0,x0,0
 114:	500007b7          	lui	x15,0x50000
 118:	00878793          	addi	x15,x15,8 # 50000008 <__stack_top+0x3fffe018>
 11c:	0007a783          	lw	x15,0(x15)
 120:	0017f793          	andi	x15,x15,1
 124:	fe0788e3          	beq	x15,x0,114 <uart_puts+0x3c>
 128:	00000013          	addi	x0,x0,0
 12c:	00000013          	addi	x0,x0,0
 130:	01c12083          	lw	x1,28(x2)
 134:	02010113          	addi	x2,x2,32
 138:	00008067          	jalr	x0,0(x1)

0000013c <uart_puthex8>:
 13c:	fd010113          	addi	x2,x2,-48
 140:	02112623          	sw	x1,44(x2)
 144:	00050793          	addi	x15,x10,0
 148:	00f107a3          	sb	x15,15(x2)
 14c:	100007b7          	lui	x15,0x10000
 150:	00078793          	addi	x15,x15,0 # 10000000 <__data_start>
 154:	00f12e23          	sw	x15,28(x2)
 158:	00f14783          	lbu	x15,15(x2)
 15c:	0047d793          	srli	x15,x15,0x4
 160:	0ff7f793          	andi	x15,x15,255
 164:	00f7f793          	andi	x15,x15,15
 168:	01c12703          	lw	x14,28(x2)
 16c:	00f707b3          	add	x15,x14,x15
 170:	0007c783          	lbu	x15,0(x15)
 174:	00078513          	addi	x10,x15,0
 178:	00000097          	auipc	x1,0x0
 17c:	f20080e7          	jalr	x1,-224(x1) # 98 <uart_putc>
 180:	00f14783          	lbu	x15,15(x2)
 184:	00f7f793          	andi	x15,x15,15
 188:	01c12703          	lw	x14,28(x2)
 18c:	00f707b3          	add	x15,x14,x15
 190:	0007c783          	lbu	x15,0(x15)
 194:	00078513          	addi	x10,x15,0
 198:	00000097          	auipc	x1,0x0
 19c:	f00080e7          	jalr	x1,-256(x1) # 98 <uart_putc>
 1a0:	00000013          	addi	x0,x0,0
 1a4:	02c12083          	lw	x1,44(x2)
 1a8:	03010113          	addi	x2,x2,48
 1ac:	00008067          	jalr	x0,0(x1)

000001b0 <uart_puthex32>:
 1b0:	fe010113          	addi	x2,x2,-32
 1b4:	00112e23          	sw	x1,28(x2)
 1b8:	00a12623          	sw	x10,12(x2)
 1bc:	00c12783          	lw	x15,12(x2)
 1c0:	0187d793          	srli	x15,x15,0x18
 1c4:	0ff7f793          	andi	x15,x15,255
 1c8:	00078513          	addi	x10,x15,0
 1cc:	00000097          	auipc	x1,0x0
 1d0:	f70080e7          	jalr	x1,-144(x1) # 13c <uart_puthex8>
 1d4:	00c12783          	lw	x15,12(x2)
 1d8:	0107d793          	srli	x15,x15,0x10
 1dc:	0ff7f793          	andi	x15,x15,255
 1e0:	00078513          	addi	x10,x15,0
 1e4:	00000097          	auipc	x1,0x0
 1e8:	f58080e7          	jalr	x1,-168(x1) # 13c <uart_puthex8>
 1ec:	00c12783          	lw	x15,12(x2)
 1f0:	0087d793          	srli	x15,x15,0x8
 1f4:	0ff7f793          	andi	x15,x15,255
 1f8:	00078513          	addi	x10,x15,0
 1fc:	00000097          	auipc	x1,0x0
 200:	f40080e7          	jalr	x1,-192(x1) # 13c <uart_puthex8>
 204:	00c12783          	lw	x15,12(x2)
 208:	0ff7f793          	andi	x15,x15,255
 20c:	00078513          	addi	x10,x15,0
 210:	00000097          	auipc	x1,0x0
 214:	f2c080e7          	jalr	x1,-212(x1) # 13c <uart_puthex8>
 218:	00000013          	addi	x0,x0,0
 21c:	01c12083          	lw	x1,28(x2)
 220:	02010113          	addi	x2,x2,32
 224:	00008067          	jalr	x0,0(x1)

00000228 <timer0_oneshot>:
 228:	ff010113          	addi	x2,x2,-16
 22c:	00a12623          	sw	x10,12(x2)
 230:	500307b7          	lui	x15,0x50030
 234:	0007a023          	sw	x0,0(x15) # 50030000 <__stack_top+0x4002e010>
 238:	500307b7          	lui	x15,0x50030
 23c:	00478793          	addi	x15,x15,4 # 50030004 <__stack_top+0x4002e014>
 240:	00c12703          	lw	x14,12(x2)
 244:	00e7a023          	sw	x14,0(x15)
 248:	0110000f          	fence	w,w
 24c:	500307b7          	lui	x15,0x50030
 250:	00100713          	addi	x14,x0,1
 254:	00e7a023          	sw	x14,0(x15) # 50030000 <__stack_top+0x4002e010>
 258:	0110000f          	fence	w,w
 25c:	00000013          	addi	x0,x0,0
 260:	01010113          	addi	x2,x2,16
 264:	00008067          	jalr	x0,0(x1)

00000268 <timer0_autoreload>:
 268:	ff010113          	addi	x2,x2,-16
 26c:	00a12623          	sw	x10,12(x2)
 270:	00058793          	addi	x15,x11,0
 274:	00f105a3          	sb	x15,11(x2)
 278:	500307b7          	lui	x15,0x50030
 27c:	0007a023          	sw	x0,0(x15) # 50030000 <__stack_top+0x4002e010>
 280:	500307b7          	lui	x15,0x50030
 284:	00478793          	addi	x15,x15,4 # 50030004 <__stack_top+0x4002e014>
 288:	00c12703          	lw	x14,12(x2)
 28c:	00e7a023          	sw	x14,0(x15)
 290:	0110000f          	fence	w,w
 294:	00b14783          	lbu	x15,11(x2)
 298:	00078663          	beq	x15,x0,2a4 <timer0_autoreload+0x3c>
 29c:	00700793          	addi	x15,x0,7
 2a0:	0080006f          	jal	x0,2a8 <timer0_autoreload+0x40>
 2a4:	00300793          	addi	x15,x0,3
 2a8:	50030737          	lui	x14,0x50030
 2ac:	00f72023          	sw	x15,0(x14) # 50030000 <__stack_top+0x4002e010>
 2b0:	0110000f          	fence	w,w
 2b4:	00000013          	addi	x0,x0,0
 2b8:	01010113          	addi	x2,x2,16
 2bc:	00008067          	jalr	x0,0(x1)

000002c0 <timer0_wait_timeout>:
 2c0:	ff010113          	addi	x2,x2,-16
 2c4:	00a12623          	sw	x10,12(x2)
 2c8:	0200006f          	jal	x0,2e8 <timer0_wait_timeout+0x28>
 2cc:	500307b7          	lui	x15,0x50030
 2d0:	00c78793          	addi	x15,x15,12 # 5003000c <__stack_top+0x4002e01c>
 2d4:	0007a783          	lw	x15,0(x15)
 2d8:	0017f793          	andi	x15,x15,1
 2dc:	00078663          	beq	x15,x0,2e8 <timer0_wait_timeout+0x28>
 2e0:	00000793          	addi	x15,x0,0
 2e4:	0180006f          	jal	x0,2fc <timer0_wait_timeout+0x3c>
 2e8:	00c12783          	lw	x15,12(x2)
 2ec:	fff78713          	addi	x14,x15,-1
 2f0:	00e12623          	sw	x14,12(x2)
 2f4:	fc079ce3          	bne	x15,x0,2cc <timer0_wait_timeout+0xc>
 2f8:	fff00793          	addi	x15,x0,-1
 2fc:	00078513          	addi	x10,x15,0
 300:	01010113          	addi	x2,x2,16
 304:	00008067          	jalr	x0,0(x1)

00000308 <timer0_clear>:
 308:	500307b7          	lui	x15,0x50030
 30c:	00c78793          	addi	x15,x15,12 # 5003000c <__stack_top+0x4002e01c>
 310:	00100713          	addi	x14,x0,1
 314:	00e7a023          	sw	x14,0(x15)
 318:	0110000f          	fence	w,w
 31c:	00000013          	addi	x0,x0,0
 320:	00008067          	jalr	x0,0(x1)

00000324 <timer0_stop>:
 324:	500307b7          	lui	x15,0x50030
 328:	0007a023          	sw	x0,0(x15) # 50030000 <__stack_top+0x4002e010>
 32c:	0110000f          	fence	w,w
 330:	00000013          	addi	x0,x0,0
 334:	00008067          	jalr	x0,0(x1)

00000338 <wdt_enable>:
 338:	ff010113          	addi	x2,x2,-16
 33c:	00a12623          	sw	x10,12(x2)
 340:	500307b7          	lui	x15,0x50030
 344:	02078793          	addi	x15,x15,32 # 50030020 <__stack_top+0x4002e030>
 348:	0007a023          	sw	x0,0(x15)
 34c:	500307b7          	lui	x15,0x50030
 350:	02478793          	addi	x15,x15,36 # 50030024 <__stack_top+0x4002e034>
 354:	00c12703          	lw	x14,12(x2)
 358:	00e7a023          	sw	x14,0(x15)
 35c:	0110000f          	fence	w,w
 360:	500307b7          	lui	x15,0x50030
 364:	02078793          	addi	x15,x15,32 # 50030020 <__stack_top+0x4002e030>
 368:	00100713          	addi	x14,x0,1
 36c:	00e7a023          	sw	x14,0(x15)
 370:	0110000f          	fence	w,w
 374:	00000013          	addi	x0,x0,0
 378:	01010113          	addi	x2,x2,16
 37c:	00008067          	jalr	x0,0(x1)

00000380 <wdt_feed>:
 380:	500307b7          	lui	x15,0x50030
 384:	02878793          	addi	x15,x15,40 # 50030028 <__stack_top+0x4002e038>
 388:	deae0737          	lui	x14,0xdeae0
 38c:	eed70713          	addi	x14,x14,-275 # deadfeed <__stack_top+0xceaddefd>
 390:	00e7a023          	sw	x14,0(x15)
 394:	0110000f          	fence	w,w
 398:	00000013          	addi	x0,x0,0
 39c:	00008067          	jalr	x0,0(x1)

000003a0 <wdt_disable>:
 3a0:	500307b7          	lui	x15,0x50030
 3a4:	02078793          	addi	x15,x15,32 # 50030020 <__stack_top+0x4002e030>
 3a8:	0007a023          	sw	x0,0(x15)
 3ac:	0110000f          	fence	w,w
 3b0:	00000013          	addi	x0,x0,0
 3b4:	00008067          	jalr	x0,0(x1)

000003b8 <wdt_expired>:
 3b8:	500307b7          	lui	x15,0x50030
 3bc:	02c78793          	addi	x15,x15,44 # 5003002c <__stack_top+0x4002e03c>
 3c0:	0007a783          	lw	x15,0(x15)
 3c4:	0017f793          	andi	x15,x15,1
 3c8:	00078513          	addi	x10,x15,0
 3cc:	00008067          	jalr	x0,0(x1)

000003d0 <wdt_clear>:
 3d0:	500307b7          	lui	x15,0x50030
 3d4:	02c78793          	addi	x15,x15,44 # 5003002c <__stack_top+0x4002e03c>
 3d8:	00100713          	addi	x14,x0,1
 3dc:	00e7a023          	sw	x14,0(x15)
 3e0:	0110000f          	fence	w,w
 3e4:	00000013          	addi	x0,x0,0
 3e8:	00008067          	jalr	x0,0(x1)

000003ec <plic_set_priority>:
 3ec:	ff010113          	addi	x2,x2,-16
 3f0:	00a12623          	sw	x10,12(x2)
 3f4:	00b12423          	sw	x11,8(x2)
 3f8:	00c12703          	lw	x14,12(x2)
 3fc:	140107b7          	lui	x15,0x14010
 400:	00f707b3          	add	x15,x14,x15
 404:	00279793          	slli	x15,x15,0x2
 408:	00078713          	addi	x14,x15,0 # 14010000 <__stack_top+0x400e010>
 40c:	00812783          	lw	x15,8(x2)
 410:	00f72023          	sw	x15,0(x14)
 414:	0110000f          	fence	w,w
 418:	00000013          	addi	x0,x0,0
 41c:	01010113          	addi	x2,x2,16
 420:	00008067          	jalr	x0,0(x1)

00000424 <plic_enable>:
 424:	ff010113          	addi	x2,x2,-16
 428:	00a12623          	sw	x10,12(x2)
 42c:	500407b7          	lui	x15,0x50040
 430:	10078793          	addi	x15,x15,256 # 50040100 <__stack_top+0x4003e110>
 434:	0007a683          	lw	x13,0(x15)
 438:	00c12783          	lw	x15,12(x2)
 43c:	00100713          	addi	x14,x0,1
 440:	00f71733          	sll	x14,x14,x15
 444:	500407b7          	lui	x15,0x50040
 448:	10078793          	addi	x15,x15,256 # 50040100 <__stack_top+0x4003e110>
 44c:	00e6e733          	or	x14,x13,x14
 450:	00e7a023          	sw	x14,0(x15)
 454:	0110000f          	fence	w,w
 458:	00000013          	addi	x0,x0,0
 45c:	01010113          	addi	x2,x2,16
 460:	00008067          	jalr	x0,0(x1)

00000464 <plic_disable>:
 464:	ff010113          	addi	x2,x2,-16
 468:	00a12623          	sw	x10,12(x2)
 46c:	500407b7          	lui	x15,0x50040
 470:	10078793          	addi	x15,x15,256 # 50040100 <__stack_top+0x4003e110>
 474:	0007a683          	lw	x13,0(x15)
 478:	00c12783          	lw	x15,12(x2)
 47c:	00100713          	addi	x14,x0,1
 480:	00f717b3          	sll	x15,x14,x15
 484:	fff7c713          	xori	x14,x15,-1
 488:	500407b7          	lui	x15,0x50040
 48c:	10078793          	addi	x15,x15,256 # 50040100 <__stack_top+0x4003e110>
 490:	00e6f733          	and	x14,x13,x14
 494:	00e7a023          	sw	x14,0(x15)
 498:	0110000f          	fence	w,w
 49c:	00000013          	addi	x0,x0,0
 4a0:	01010113          	addi	x2,x2,16
 4a4:	00008067          	jalr	x0,0(x1)

000004a8 <plic_set_threshold>:
 4a8:	ff010113          	addi	x2,x2,-16
 4ac:	00a12623          	sw	x10,12(x2)
 4b0:	500407b7          	lui	x15,0x50040
 4b4:	20078793          	addi	x15,x15,512 # 50040200 <__stack_top+0x4003e210>
 4b8:	00c12703          	lw	x14,12(x2)
 4bc:	00e7a023          	sw	x14,0(x15)
 4c0:	0110000f          	fence	w,w
 4c4:	00000013          	addi	x0,x0,0
 4c8:	01010113          	addi	x2,x2,16
 4cc:	00008067          	jalr	x0,0(x1)

000004d0 <plic_claim>:
 4d0:	500407b7          	lui	x15,0x50040
 4d4:	20478793          	addi	x15,x15,516 # 50040204 <__stack_top+0x4003e214>
 4d8:	0007a783          	lw	x15,0(x15)
 4dc:	00078513          	addi	x10,x15,0
 4e0:	00008067          	jalr	x0,0(x1)

000004e4 <plic_complete>:
 4e4:	ff010113          	addi	x2,x2,-16
 4e8:	00a12623          	sw	x10,12(x2)
 4ec:	500407b7          	lui	x15,0x50040
 4f0:	20478793          	addi	x15,x15,516 # 50040204 <__stack_top+0x4003e214>
 4f4:	00c12703          	lw	x14,12(x2)
 4f8:	00e7a023          	sw	x14,0(x15)
 4fc:	0110000f          	fence	w,w
 500:	00000013          	addi	x0,x0,0
 504:	01010113          	addi	x2,x2,16
 508:	00008067          	jalr	x0,0(x1)

0000050c <irq_set_mtvec>:
 50c:	ff010113          	addi	x2,x2,-16
 510:	00a12623          	sw	x10,12(x2)
 514:	00c12783          	lw	x15,12(x2)
 518:	30579073          	csrrw	x0,mtvec,x15
 51c:	00000013          	addi	x0,x0,0
 520:	01010113          	addi	x2,x2,16
 524:	00008067          	jalr	x0,0(x1)

00000528 <irq_enable_global>:
 528:	30046073          	csrrsi	x0,mstatus,8
 52c:	00000013          	addi	x0,x0,0
 530:	00008067          	jalr	x0,0(x1)

00000534 <irq_disable_global>:
 534:	30047073          	csrrci	x0,mstatus,8
 538:	00000013          	addi	x0,x0,0
 53c:	00008067          	jalr	x0,0(x1)

00000540 <irq_enable_external>:
 540:	000012b7          	lui	x5,0x1
 544:	80028293          	addi	x5,x5,-2048 # 800 <run_timer_test+0x1a4>
 548:	3042a073          	csrrs	x0,mie,x5
 54c:	00000013          	addi	x0,x0,0
 550:	00008067          	jalr	x0,0(x1)

00000554 <irq_mcause>:
 554:	ff010113          	addi	x2,x2,-16
 558:	342027f3          	csrrs	x15,mcause,x0
 55c:	00f12623          	sw	x15,12(x2)
 560:	00c12783          	lw	x15,12(x2)
 564:	00078513          	addi	x10,x15,0
 568:	01010113          	addi	x2,x2,16
 56c:	00008067          	jalr	x0,0(x1)

00000570 <timer_isr>:
 570:	fb010113          	addi	x2,x2,-80
 574:	04112623          	sw	x1,76(x2)
 578:	04512423          	sw	x5,72(x2)
 57c:	04612223          	sw	x6,68(x2)
 580:	04712023          	sw	x7,64(x2)
 584:	02a12e23          	sw	x10,60(x2)
 588:	02b12c23          	sw	x11,56(x2)
 58c:	02c12a23          	sw	x12,52(x2)
 590:	02d12823          	sw	x13,48(x2)
 594:	02e12623          	sw	x14,44(x2)
 598:	02f12423          	sw	x15,40(x2)
 59c:	03012223          	sw	x16,36(x2)
 5a0:	03112023          	sw	x17,32(x2)
 5a4:	01c12e23          	sw	x28,28(x2)
 5a8:	01d12c23          	sw	x29,24(x2)
 5ac:	01e12a23          	sw	x30,20(x2)
 5b0:	01f12823          	sw	x31,16(x2)
 5b4:	00000097          	auipc	x1,0x0
 5b8:	fa0080e7          	jalr	x1,-96(x1) # 554 <irq_mcause>
 5bc:	00a12623          	sw	x10,12(x2)
 5c0:	00c12783          	lw	x15,12(x2)
 5c4:	0ff7f713          	andi	x14,x15,255
 5c8:	00b00793          	addi	x15,x0,11
 5cc:	04f71263          	bne	x14,x15,610 <timer_isr+0xa0>
 5d0:	00000097          	auipc	x1,0x0
 5d4:	f00080e7          	jalr	x1,-256(x1) # 4d0 <plic_claim>
 5d8:	00a12423          	sw	x10,8(x2)
 5dc:	00812703          	lw	x14,8(x2)
 5e0:	00500793          	addi	x15,x0,5
 5e4:	02f71063          	bne	x14,x15,604 <timer_isr+0x94>
 5e8:	00000097          	auipc	x1,0x0
 5ec:	d20080e7          	jalr	x1,-736(x1) # 308 <timer0_clear>
 5f0:	100007b7          	lui	x15,0x10000
 5f4:	03c7a783          	lw	x15,60(x15) # 1000003c <timer_irq_count>
 5f8:	00178713          	addi	x14,x15,1
 5fc:	100007b7          	lui	x15,0x10000
 600:	02e7ae23          	sw	x14,60(x15) # 1000003c <timer_irq_count>
 604:	00812503          	lw	x10,8(x2)
 608:	00000097          	auipc	x1,0x0
 60c:	edc080e7          	jalr	x1,-292(x1) # 4e4 <plic_complete>
 610:	00000013          	addi	x0,x0,0
 614:	04c12083          	lw	x1,76(x2)
 618:	04812283          	lw	x5,72(x2)
 61c:	04412303          	lw	x6,68(x2)
 620:	04012383          	lw	x7,64(x2)
 624:	03c12503          	lw	x10,60(x2)
 628:	03812583          	lw	x11,56(x2)
 62c:	03412603          	lw	x12,52(x2)
 630:	03012683          	lw	x13,48(x2)
 634:	02c12703          	lw	x14,44(x2)
 638:	02812783          	lw	x15,40(x2)
 63c:	02412803          	lw	x16,36(x2)
 640:	02012883          	lw	x17,32(x2)
 644:	01c12e03          	lw	x28,28(x2)
 648:	01812e83          	lw	x29,24(x2)
 64c:	01412f03          	lw	x30,20(x2)
 650:	01012f83          	lw	x31,16(x2)
 654:	05010113          	addi	x2,x2,80
 658:	30200073          	mret

0000065c <run_timer_test>:
 65c:	fe010113          	addi	x2,x2,-32
 660:	00112e23          	sw	x1,28(x2)
 664:	00000613          	addi	x12,x0,0
 668:	00000593          	addi	x11,x0,0
 66c:	36400513          	addi	x10,x0,868
 670:	00000097          	auipc	x1,0x0
 674:	9bc080e7          	jalr	x1,-1604(x1) # 2c <uart_init>
 678:	000017b7          	lui	x15,0x1
 67c:	38878513          	addi	x10,x15,904 # 1388 <__data_load+0xab8>
 680:	00000097          	auipc	x1,0x0
 684:	ba8080e7          	jalr	x1,-1112(x1) # 228 <timer0_oneshot>
 688:	000407b7          	lui	x15,0x40
 68c:	fff78513          	addi	x10,x15,-1 # 3ffff <__data_load+0x3f72f>
 690:	00000097          	auipc	x1,0x0
 694:	c30080e7          	jalr	x1,-976(x1) # 2c0 <timer0_wait_timeout>
 698:	00050793          	addi	x15,x10,0
 69c:	00078663          	beq	x15,x0,6a8 <run_timer_test+0x4c>
 6a0:	fff00793          	addi	x15,x0,-1
 6a4:	1b40006f          	jal	x0,858 <run_timer_test+0x1fc>
 6a8:	00000097          	auipc	x1,0x0
 6ac:	c60080e7          	jalr	x1,-928(x1) # 308 <timer0_clear>
 6b0:	00000097          	auipc	x1,0x0
 6b4:	c74080e7          	jalr	x1,-908(x1) # 324 <timer0_stop>
 6b8:	100007b7          	lui	x15,0x10000
 6bc:	0207ae23          	sw	x0,60(x15) # 1000003c <timer_irq_count>
 6c0:	00000513          	addi	x10,x0,0
 6c4:	00000097          	auipc	x1,0x0
 6c8:	de4080e7          	jalr	x1,-540(x1) # 4a8 <plic_set_threshold>
 6cc:	00100593          	addi	x11,x0,1
 6d0:	00500513          	addi	x10,x0,5
 6d4:	00000097          	auipc	x1,0x0
 6d8:	d18080e7          	jalr	x1,-744(x1) # 3ec <plic_set_priority>
 6dc:	00500513          	addi	x10,x0,5
 6e0:	00000097          	auipc	x1,0x0
 6e4:	d44080e7          	jalr	x1,-700(x1) # 424 <plic_enable>
 6e8:	000007b7          	lui	x15,0x0
 6ec:	57078513          	addi	x10,x15,1392 # 570 <timer_isr>
 6f0:	00000097          	auipc	x1,0x0
 6f4:	e1c080e7          	jalr	x1,-484(x1) # 50c <irq_set_mtvec>
 6f8:	00000097          	auipc	x1,0x0
 6fc:	e48080e7          	jalr	x1,-440(x1) # 540 <irq_enable_external>
 700:	00000097          	auipc	x1,0x0
 704:	e28080e7          	jalr	x1,-472(x1) # 528 <irq_enable_global>
 708:	00100593          	addi	x11,x0,1
 70c:	3e800513          	addi	x10,x0,1000
 710:	00000097          	auipc	x1,0x0
 714:	b58080e7          	jalr	x1,-1192(x1) # 268 <timer0_autoreload>
 718:	000807b7          	lui	x15,0x80
 71c:	fff78793          	addi	x15,x15,-1 # 7ffff <__data_load+0x7f72f>
 720:	00f12423          	sw	x15,8(x2)
 724:	0280006f          	jal	x0,74c <run_timer_test+0xf0>
 728:	00812783          	lw	x15,8(x2)
 72c:	fff78793          	addi	x15,x15,-1
 730:	00f12423          	sw	x15,8(x2)
 734:	00812783          	lw	x15,8(x2)
 738:	00079a63          	bne	x15,x0,74c <run_timer_test+0xf0>
 73c:	00000097          	auipc	x1,0x0
 740:	df8080e7          	jalr	x1,-520(x1) # 534 <irq_disable_global>
 744:	ffe00793          	addi	x15,x0,-2
 748:	1100006f          	jal	x0,858 <run_timer_test+0x1fc>
 74c:	100007b7          	lui	x15,0x10000
 750:	03c7a703          	lw	x14,60(x15) # 1000003c <timer_irq_count>
 754:	00200793          	addi	x15,x0,2
 758:	fce7f8e3          	bgeu	x15,x14,728 <run_timer_test+0xcc>
 75c:	00000097          	auipc	x1,0x0
 760:	dd8080e7          	jalr	x1,-552(x1) # 534 <irq_disable_global>
 764:	00000097          	auipc	x1,0x0
 768:	bc0080e7          	jalr	x1,-1088(x1) # 324 <timer0_stop>
 76c:	00500513          	addi	x10,x0,5
 770:	00000097          	auipc	x1,0x0
 774:	cf4080e7          	jalr	x1,-780(x1) # 464 <plic_disable>
 778:	0000c7b7          	lui	x15,0xc
 77c:	35078513          	addi	x10,x15,848 # c350 <__data_load+0xba80>
 780:	00000097          	auipc	x1,0x0
 784:	bb8080e7          	jalr	x1,-1096(x1) # 338 <wdt_enable>
 788:	00012623          	sw	x0,12(x2)
 78c:	03c0006f          	jal	x0,7c8 <run_timer_test+0x16c>
 790:	00012223          	sw	x0,4(x2)
 794:	0140006f          	jal	x0,7a8 <run_timer_test+0x14c>
 798:	00000013          	addi	x0,x0,0
 79c:	00412783          	lw	x15,4(x2)
 7a0:	00178793          	addi	x15,x15,1
 7a4:	00f12223          	sw	x15,4(x2)
 7a8:	00412703          	lw	x14,4(x2)
 7ac:	0c700793          	addi	x15,x0,199
 7b0:	fee7f4e3          	bgeu	x15,x14,798 <run_timer_test+0x13c>
 7b4:	00000097          	auipc	x1,0x0
 7b8:	bcc080e7          	jalr	x1,-1076(x1) # 380 <wdt_feed>
 7bc:	00c12783          	lw	x15,12(x2)
 7c0:	00178793          	addi	x15,x15,1
 7c4:	00f12623          	sw	x15,12(x2)
 7c8:	00c12703          	lw	x14,12(x2)
 7cc:	00900793          	addi	x15,x0,9
 7d0:	fce7f0e3          	bgeu	x15,x14,790 <run_timer_test+0x134>
 7d4:	00000097          	auipc	x1,0x0
 7d8:	be4080e7          	jalr	x1,-1052(x1) # 3b8 <wdt_expired>
 7dc:	00050793          	addi	x15,x10,0
 7e0:	00078663          	beq	x15,x0,7ec <run_timer_test+0x190>
 7e4:	ffd00793          	addi	x15,x0,-3
 7e8:	0700006f          	jal	x0,858 <run_timer_test+0x1fc>
 7ec:	00000097          	auipc	x1,0x0
 7f0:	bb4080e7          	jalr	x1,-1100(x1) # 3a0 <wdt_disable>
 7f4:	00000097          	auipc	x1,0x0
 7f8:	bdc080e7          	jalr	x1,-1060(x1) # 3d0 <wdt_clear>
 7fc:	0c800513          	addi	x10,x0,200
 800:	00000097          	auipc	x1,0x0
 804:	b38080e7          	jalr	x1,-1224(x1) # 338 <wdt_enable>
 808:	000107b7          	lui	x15,0x10
 80c:	fff78793          	addi	x15,x15,-1 # ffff <__data_load+0xf72f>
 810:	00f12423          	sw	x15,8(x2)
 814:	0200006f          	jal	x0,834 <run_timer_test+0x1d8>
 818:	00812783          	lw	x15,8(x2)
 81c:	fff78793          	addi	x15,x15,-1
 820:	00f12423          	sw	x15,8(x2)
 824:	00812783          	lw	x15,8(x2)
 828:	00079663          	bne	x15,x0,834 <run_timer_test+0x1d8>
 82c:	ffc00793          	addi	x15,x0,-4
 830:	0280006f          	jal	x0,858 <run_timer_test+0x1fc>
 834:	00000097          	auipc	x1,0x0
 838:	b84080e7          	jalr	x1,-1148(x1) # 3b8 <wdt_expired>
 83c:	00050793          	addi	x15,x10,0
 840:	fc078ce3          	beq	x15,x0,818 <run_timer_test+0x1bc>
 844:	00000097          	auipc	x1,0x0
 848:	b8c080e7          	jalr	x1,-1140(x1) # 3d0 <wdt_clear>
 84c:	00000097          	auipc	x1,0x0
 850:	b54080e7          	jalr	x1,-1196(x1) # 3a0 <wdt_disable>
 854:	00000793          	addi	x15,x0,0
 858:	00078513          	addi	x10,x15,0
 85c:	01c12083          	lw	x1,28(x2)
 860:	02010113          	addi	x2,x2,32
 864:	00008067          	jalr	x0,0(x1)

00000868 <main>:
 868:	fe010113          	addi	x2,x2,-32
 86c:	00112e23          	sw	x1,28(x2)
 870:	00000097          	auipc	x1,0x0
 874:	dec080e7          	jalr	x1,-532(x1) # 65c <run_timer_test>
 878:	00a12623          	sw	x10,12(x2)
 87c:	00c12783          	lw	x15,12(x2)
 880:	00079c63          	bne	x15,x0,898 <main+0x30>
 884:	100007b7          	lui	x15,0x10000
 888:	01478513          	addi	x10,x15,20 # 10000014 <__data_start+0x14>
 88c:	00000097          	auipc	x1,0x0
 890:	84c080e7          	jalr	x1,-1972(x1) # d8 <uart_puts>
 894:	0340006f          	jal	x0,8c8 <main+0x60>
 898:	100007b7          	lui	x15,0x10000
 89c:	02478513          	addi	x10,x15,36 # 10000024 <__data_start+0x24>
 8a0:	00000097          	auipc	x1,0x0
 8a4:	838080e7          	jalr	x1,-1992(x1) # d8 <uart_puts>
 8a8:	00c12783          	lw	x15,12(x2)
 8ac:	00078513          	addi	x10,x15,0
 8b0:	00000097          	auipc	x1,0x0
 8b4:	900080e7          	jalr	x1,-1792(x1) # 1b0 <uart_puthex32>
 8b8:	100007b7          	lui	x15,0x10000
 8bc:	03878513          	addi	x10,x15,56 # 10000038 <__data_start+0x38>
 8c0:	00000097          	auipc	x1,0x0
 8c4:	818080e7          	jalr	x1,-2024(x1) # d8 <uart_puts>
 8c8:	00000013          	addi	x0,x0,0
 8cc:	ffdff06f          	jal	x0,8c8 <main+0x60>
